
bomb:     file format elf32-i386


Disassembly of section .init:

08048790 <_init>:
 8048790:	53                   	push   %ebx
 8048791:	83 ec 08             	sub    $0x8,%esp
 8048794:	e8 57 02 00 00       	call   80489f0 <__x86.get_pc_thunk.bx>
 8048799:	81 c3 67 48 00 00    	add    $0x4867,%ebx
 804879f:	8b 83 fc ff ff ff    	mov    -0x4(%ebx),%eax
 80487a5:	85 c0                	test   %eax,%eax
 80487a7:	74 05                	je     80487ae <_init+0x1e>
 80487a9:	e8 02 01 00 00       	call   80488b0 <__gmon_start__@plt>
 80487ae:	83 c4 08             	add    $0x8,%esp
 80487b1:	5b                   	pop    %ebx
 80487b2:	c3                   	ret    

Disassembly of section .plt:

080487c0 <read@plt-0x10>:
 80487c0:	ff 35 04 d0 04 08    	pushl  0x804d004
 80487c6:	ff 25 08 d0 04 08    	jmp    *0x804d008
 80487cc:	00 00                	add    %al,(%eax)
	...

080487d0 <read@plt>:
 80487d0:	ff 25 0c d0 04 08    	jmp    *0x804d00c
 80487d6:	68 00 00 00 00       	push   $0x0
 80487db:	e9 e0 ff ff ff       	jmp    80487c0 <_init+0x30>

080487e0 <fflush@plt>:
 80487e0:	ff 25 10 d0 04 08    	jmp    *0x804d010
 80487e6:	68 08 00 00 00       	push   $0x8
 80487eb:	e9 d0 ff ff ff       	jmp    80487c0 <_init+0x30>

080487f0 <fgets@plt>:
 80487f0:	ff 25 14 d0 04 08    	jmp    *0x804d014
 80487f6:	68 10 00 00 00       	push   $0x10
 80487fb:	e9 c0 ff ff ff       	jmp    80487c0 <_init+0x30>

08048800 <signal@plt>:
 8048800:	ff 25 18 d0 04 08    	jmp    *0x804d018
 8048806:	68 18 00 00 00       	push   $0x18
 804880b:	e9 b0 ff ff ff       	jmp    80487c0 <_init+0x30>

08048810 <sleep@plt>:
 8048810:	ff 25 1c d0 04 08    	jmp    *0x804d01c
 8048816:	68 20 00 00 00       	push   $0x20
 804881b:	e9 a0 ff ff ff       	jmp    80487c0 <_init+0x30>

08048820 <alarm@plt>:
 8048820:	ff 25 20 d0 04 08    	jmp    *0x804d020
 8048826:	68 28 00 00 00       	push   $0x28
 804882b:	e9 90 ff ff ff       	jmp    80487c0 <_init+0x30>

08048830 <__stack_chk_fail@plt>:
 8048830:	ff 25 24 d0 04 08    	jmp    *0x804d024
 8048836:	68 30 00 00 00       	push   $0x30
 804883b:	e9 80 ff ff ff       	jmp    80487c0 <_init+0x30>

08048840 <strcpy@plt>:
 8048840:	ff 25 28 d0 04 08    	jmp    *0x804d028
 8048846:	68 38 00 00 00       	push   $0x38
 804884b:	e9 70 ff ff ff       	jmp    80487c0 <_init+0x30>

08048850 <gethostname@plt>:
 8048850:	ff 25 2c d0 04 08    	jmp    *0x804d02c
 8048856:	68 40 00 00 00       	push   $0x40
 804885b:	e9 60 ff ff ff       	jmp    80487c0 <_init+0x30>

08048860 <getenv@plt>:
 8048860:	ff 25 30 d0 04 08    	jmp    *0x804d030
 8048866:	68 48 00 00 00       	push   $0x48
 804886b:	e9 50 ff ff ff       	jmp    80487c0 <_init+0x30>

08048870 <malloc@plt>:
 8048870:	ff 25 34 d0 04 08    	jmp    *0x804d034
 8048876:	68 50 00 00 00       	push   $0x50
 804887b:	e9 40 ff ff ff       	jmp    80487c0 <_init+0x30>

08048880 <puts@plt>:
 8048880:	ff 25 38 d0 04 08    	jmp    *0x804d038
 8048886:	68 58 00 00 00       	push   $0x58
 804888b:	e9 30 ff ff ff       	jmp    80487c0 <_init+0x30>

08048890 <__memmove_chk@plt>:
 8048890:	ff 25 3c d0 04 08    	jmp    *0x804d03c
 8048896:	68 60 00 00 00       	push   $0x60
 804889b:	e9 20 ff ff ff       	jmp    80487c0 <_init+0x30>

080488a0 <__memcpy_chk@plt>:
 80488a0:	ff 25 40 d0 04 08    	jmp    *0x804d040
 80488a6:	68 68 00 00 00       	push   $0x68
 80488ab:	e9 10 ff ff ff       	jmp    80487c0 <_init+0x30>

080488b0 <__gmon_start__@plt>:
 80488b0:	ff 25 44 d0 04 08    	jmp    *0x804d044
 80488b6:	68 70 00 00 00       	push   $0x70
 80488bb:	e9 00 ff ff ff       	jmp    80487c0 <_init+0x30>

080488c0 <exit@plt>:
 80488c0:	ff 25 48 d0 04 08    	jmp    *0x804d048
 80488c6:	68 78 00 00 00       	push   $0x78
 80488cb:	e9 f0 fe ff ff       	jmp    80487c0 <_init+0x30>

080488d0 <__libc_start_main@plt>:
 80488d0:	ff 25 4c d0 04 08    	jmp    *0x804d04c
 80488d6:	68 80 00 00 00       	push   $0x80
 80488db:	e9 e0 fe ff ff       	jmp    80487c0 <_init+0x30>

080488e0 <write@plt>:
 80488e0:	ff 25 50 d0 04 08    	jmp    *0x804d050
 80488e6:	68 88 00 00 00       	push   $0x88
 80488eb:	e9 d0 fe ff ff       	jmp    80487c0 <_init+0x30>

080488f0 <strcasecmp@plt>:
 80488f0:	ff 25 54 d0 04 08    	jmp    *0x804d054
 80488f6:	68 90 00 00 00       	push   $0x90
 80488fb:	e9 c0 fe ff ff       	jmp    80487c0 <_init+0x30>

08048900 <__isoc99_sscanf@plt>:
 8048900:	ff 25 58 d0 04 08    	jmp    *0x804d058
 8048906:	68 98 00 00 00       	push   $0x98
 804890b:	e9 b0 fe ff ff       	jmp    80487c0 <_init+0x30>

08048910 <fopen@plt>:
 8048910:	ff 25 5c d0 04 08    	jmp    *0x804d05c
 8048916:	68 a0 00 00 00       	push   $0xa0
 804891b:	e9 a0 fe ff ff       	jmp    80487c0 <_init+0x30>

08048920 <__errno_location@plt>:
 8048920:	ff 25 60 d0 04 08    	jmp    *0x804d060
 8048926:	68 a8 00 00 00       	push   $0xa8
 804892b:	e9 90 fe ff ff       	jmp    80487c0 <_init+0x30>

08048930 <__printf_chk@plt>:
 8048930:	ff 25 64 d0 04 08    	jmp    *0x804d064
 8048936:	68 b0 00 00 00       	push   $0xb0
 804893b:	e9 80 fe ff ff       	jmp    80487c0 <_init+0x30>

08048940 <socket@plt>:
 8048940:	ff 25 68 d0 04 08    	jmp    *0x804d068
 8048946:	68 b8 00 00 00       	push   $0xb8
 804894b:	e9 70 fe ff ff       	jmp    80487c0 <_init+0x30>

08048950 <__fprintf_chk@plt>:
 8048950:	ff 25 6c d0 04 08    	jmp    *0x804d06c
 8048956:	68 c0 00 00 00       	push   $0xc0
 804895b:	e9 60 fe ff ff       	jmp    80487c0 <_init+0x30>

08048960 <gethostbyname@plt>:
 8048960:	ff 25 70 d0 04 08    	jmp    *0x804d070
 8048966:	68 c8 00 00 00       	push   $0xc8
 804896b:	e9 50 fe ff ff       	jmp    80487c0 <_init+0x30>

08048970 <strtol@plt>:
 8048970:	ff 25 74 d0 04 08    	jmp    *0x804d074
 8048976:	68 d0 00 00 00       	push   $0xd0
 804897b:	e9 40 fe ff ff       	jmp    80487c0 <_init+0x30>

08048980 <connect@plt>:
 8048980:	ff 25 78 d0 04 08    	jmp    *0x804d078
 8048986:	68 d8 00 00 00       	push   $0xd8
 804898b:	e9 30 fe ff ff       	jmp    80487c0 <_init+0x30>

08048990 <close@plt>:
 8048990:	ff 25 7c d0 04 08    	jmp    *0x804d07c
 8048996:	68 e0 00 00 00       	push   $0xe0
 804899b:	e9 20 fe ff ff       	jmp    80487c0 <_init+0x30>

080489a0 <__ctype_b_loc@plt>:
 80489a0:	ff 25 80 d0 04 08    	jmp    *0x804d080
 80489a6:	68 e8 00 00 00       	push   $0xe8
 80489ab:	e9 10 fe ff ff       	jmp    80487c0 <_init+0x30>

080489b0 <__sprintf_chk@plt>:
 80489b0:	ff 25 84 d0 04 08    	jmp    *0x804d084
 80489b6:	68 f0 00 00 00       	push   $0xf0
 80489bb:	e9 00 fe ff ff       	jmp    80487c0 <_init+0x30>

Disassembly of section .text:

080489c0 <_start>:
 80489c0:	31 ed                	xor    %ebp,%ebp
 80489c2:	5e                   	pop    %esi
 80489c3:	89 e1                	mov    %esp,%ecx
 80489c5:	83 e4 f0             	and    $0xfffffff0,%esp
 80489c8:	50                   	push   %eax
 80489c9:	54                   	push   %esp
 80489ca:	52                   	push   %edx
 80489cb:	68 50 a3 04 08       	push   $0x804a350
 80489d0:	68 e0 a2 04 08       	push   $0x804a2e0
 80489d5:	51                   	push   %ecx
 80489d6:	56                   	push   %esi
 80489d7:	68 bd 8a 04 08       	push   $0x8048abd
 80489dc:	e8 ef fe ff ff       	call   80488d0 <__libc_start_main@plt>
 80489e1:	f4                   	hlt    
 80489e2:	66 90                	xchg   %ax,%ax
 80489e4:	66 90                	xchg   %ax,%ax
 80489e6:	66 90                	xchg   %ax,%ax
 80489e8:	66 90                	xchg   %ax,%ax
 80489ea:	66 90                	xchg   %ax,%ax
 80489ec:	66 90                	xchg   %ax,%ax
 80489ee:	66 90                	xchg   %ax,%ax

080489f0 <__x86.get_pc_thunk.bx>:
 80489f0:	8b 1c 24             	mov    (%esp),%ebx
 80489f3:	c3                   	ret    
 80489f4:	66 90                	xchg   %ax,%ax
 80489f6:	66 90                	xchg   %ax,%ax
 80489f8:	66 90                	xchg   %ax,%ax
 80489fa:	66 90                	xchg   %ax,%ax
 80489fc:	66 90                	xchg   %ax,%ax
 80489fe:	66 90                	xchg   %ax,%ax

08048a00 <deregister_tm_clones>:
 8048a00:	b8 e3 d7 04 08       	mov    $0x804d7e3,%eax
 8048a05:	2d e0 d7 04 08       	sub    $0x804d7e0,%eax
 8048a0a:	83 f8 06             	cmp    $0x6,%eax
 8048a0d:	77 01                	ja     8048a10 <deregister_tm_clones+0x10>
 8048a0f:	c3                   	ret    
 8048a10:	b8 00 00 00 00       	mov    $0x0,%eax
 8048a15:	85 c0                	test   %eax,%eax
 8048a17:	74 f6                	je     8048a0f <deregister_tm_clones+0xf>
 8048a19:	55                   	push   %ebp
 8048a1a:	89 e5                	mov    %esp,%ebp
 8048a1c:	83 ec 18             	sub    $0x18,%esp
 8048a1f:	c7 04 24 e0 d7 04 08 	movl   $0x804d7e0,(%esp)
 8048a26:	ff d0                	call   *%eax
 8048a28:	c9                   	leave  
 8048a29:	c3                   	ret    
 8048a2a:	8d b6 00 00 00 00    	lea    0x0(%esi),%esi

08048a30 <register_tm_clones>:
 8048a30:	b8 e0 d7 04 08       	mov    $0x804d7e0,%eax
 8048a35:	2d e0 d7 04 08       	sub    $0x804d7e0,%eax
 8048a3a:	c1 f8 02             	sar    $0x2,%eax
 8048a3d:	89 c2                	mov    %eax,%edx
 8048a3f:	c1 ea 1f             	shr    $0x1f,%edx
 8048a42:	01 d0                	add    %edx,%eax
 8048a44:	d1 f8                	sar    %eax
 8048a46:	75 01                	jne    8048a49 <register_tm_clones+0x19>
 8048a48:	c3                   	ret    
 8048a49:	ba 00 00 00 00       	mov    $0x0,%edx
 8048a4e:	85 d2                	test   %edx,%edx
 8048a50:	74 f6                	je     8048a48 <register_tm_clones+0x18>
 8048a52:	55                   	push   %ebp
 8048a53:	89 e5                	mov    %esp,%ebp
 8048a55:	83 ec 18             	sub    $0x18,%esp
 8048a58:	89 44 24 04          	mov    %eax,0x4(%esp)
 8048a5c:	c7 04 24 e0 d7 04 08 	movl   $0x804d7e0,(%esp)
 8048a63:	ff d2                	call   *%edx
 8048a65:	c9                   	leave  
 8048a66:	c3                   	ret    
 8048a67:	89 f6                	mov    %esi,%esi
 8048a69:	8d bc 27 00 00 00 00 	lea    0x0(%edi,%eiz,1),%edi

08048a70 <__do_global_dtors_aux>:
 8048a70:	80 3d 04 d8 04 08 00 	cmpb   $0x0,0x804d804
 8048a77:	75 13                	jne    8048a8c <__do_global_dtors_aux+0x1c>
 8048a79:	55                   	push   %ebp
 8048a7a:	89 e5                	mov    %esp,%ebp
 8048a7c:	83 ec 08             	sub    $0x8,%esp
 8048a7f:	e8 7c ff ff ff       	call   8048a00 <deregister_tm_clones>
 8048a84:	c6 05 04 d8 04 08 01 	movb   $0x1,0x804d804
 8048a8b:	c9                   	leave  
 8048a8c:	f3 c3                	repz ret 
 8048a8e:	66 90                	xchg   %ax,%ax

08048a90 <frame_dummy>:
 8048a90:	a1 10 cf 04 08       	mov    0x804cf10,%eax
 8048a95:	85 c0                	test   %eax,%eax
 8048a97:	74 1f                	je     8048ab8 <frame_dummy+0x28>
 8048a99:	b8 00 00 00 00       	mov    $0x0,%eax
 8048a9e:	85 c0                	test   %eax,%eax
 8048aa0:	74 16                	je     8048ab8 <frame_dummy+0x28>
 8048aa2:	55                   	push   %ebp
 8048aa3:	89 e5                	mov    %esp,%ebp
 8048aa5:	83 ec 18             	sub    $0x18,%esp
 8048aa8:	c7 04 24 10 cf 04 08 	movl   $0x804cf10,(%esp)
 8048aaf:	ff d0                	call   *%eax
 8048ab1:	c9                   	leave  
 8048ab2:	e9 79 ff ff ff       	jmp    8048a30 <register_tm_clones>
 8048ab7:	90                   	nop
 8048ab8:	e9 73 ff ff ff       	jmp    8048a30 <register_tm_clones>

08048abd <main>:
 8048abd:	55                   	push   %ebp
 8048abe:	89 e5                	mov    %esp,%ebp
 8048ac0:	53                   	push   %ebx
 8048ac1:	83 e4 f0             	and    $0xfffffff0,%esp
 8048ac4:	83 ec 10             	sub    $0x10,%esp
 8048ac7:	8b 45 08             	mov    0x8(%ebp),%eax
 8048aca:	8b 5d 0c             	mov    0xc(%ebp),%ebx
 8048acd:	83 f8 01             	cmp    $0x1,%eax
 8048ad0:	75 0c                	jne    8048ade <main+0x21>
 8048ad2:	a1 e4 d7 04 08       	mov    0x804d7e4,%eax
 8048ad7:	a3 0c d8 04 08       	mov    %eax,0x804d80c
 8048adc:	eb 74                	jmp    8048b52 <main+0x95>
 8048ade:	83 f8 02             	cmp    $0x2,%eax
 8048ae1:	75 49                	jne    8048b2c <main+0x6f>
 8048ae3:	c7 44 24 04 70 a3 04 	movl   $0x804a370,0x4(%esp)
 8048aea:	08 
 8048aeb:	8b 43 04             	mov    0x4(%ebx),%eax
 8048aee:	89 04 24             	mov    %eax,(%esp)
 8048af1:	e8 1a fe ff ff       	call   8048910 <fopen@plt>
 8048af6:	a3 0c d8 04 08       	mov    %eax,0x804d80c
 8048afb:	85 c0                	test   %eax,%eax
 8048afd:	75 53                	jne    8048b52 <main+0x95>
 8048aff:	8b 43 04             	mov    0x4(%ebx),%eax
 8048b02:	89 44 24 0c          	mov    %eax,0xc(%esp)
 8048b06:	8b 03                	mov    (%ebx),%eax
 8048b08:	89 44 24 08          	mov    %eax,0x8(%esp)
 8048b0c:	c7 44 24 04 72 a3 04 	movl   $0x804a372,0x4(%esp)
 8048b13:	08 
 8048b14:	c7 04 24 01 00 00 00 	movl   $0x1,(%esp)
 8048b1b:	e8 10 fe ff ff       	call   8048930 <__printf_chk@plt>
 8048b20:	c7 04 24 08 00 00 00 	movl   $0x8,(%esp)
 8048b27:	e8 94 fd ff ff       	call   80488c0 <exit@plt>
 8048b2c:	8b 03                	mov    (%ebx),%eax
 8048b2e:	89 44 24 08          	mov    %eax,0x8(%esp)
 8048b32:	c7 44 24 04 8f a3 04 	movl   $0x804a38f,0x4(%esp)
 8048b39:	08 
 8048b3a:	c7 04 24 01 00 00 00 	movl   $0x1,(%esp)
 8048b41:	e8 ea fd ff ff       	call   8048930 <__printf_chk@plt>
 8048b46:	c7 04 24 08 00 00 00 	movl   $0x8,(%esp)
 8048b4d:	e8 6e fd ff ff       	call   80488c0 <exit@plt>
 8048b52:	e8 ff 06 00 00       	call   8049256 <initialize_bomb>
 8048b57:	c7 04 24 00 a4 04 08 	movl   $0x804a400,(%esp)
 8048b5e:	e8 1d fd ff ff       	call   8048880 <puts@plt>
 8048b63:	c7 04 24 3c a4 04 08 	movl   $0x804a43c,(%esp)
 8048b6a:	e8 11 fd ff ff       	call   8048880 <puts@plt>
 8048b6f:	e8 00 0a 00 00       	call   8049574 <read_line>
 8048b74:	89 04 24             	mov    %eax,(%esp)
 8048b77:	e8 04 01 00 00       	call   8048c80 <phase_1>
 8048b7c:	e8 ed 0a 00 00       	call   804966e <phase_defused>
 8048b81:	c7 04 24 68 a4 04 08 	movl   $0x804a468,(%esp)
 8048b88:	e8 f3 fc ff ff       	call   8048880 <puts@plt>
 8048b8d:	e8 e2 09 00 00       	call   8049574 <read_line>
 8048b92:	89 04 24             	mov    %eax,(%esp)
 8048b95:	e8 2a 01 00 00       	call   8048cc4 <phase_2>
 8048b9a:	e8 cf 0a 00 00       	call   804966e <phase_defused>
 8048b9f:	c7 04 24 a9 a3 04 08 	movl   $0x804a3a9,(%esp)
 8048ba6:	e8 d5 fc ff ff       	call   8048880 <puts@plt>
 8048bab:	e8 c4 09 00 00       	call   8049574 <read_line>
 8048bb0:	89 04 24             	mov    %eax,(%esp)
 8048bb3:	e8 30 01 00 00       	call   8048ce8 <phase_3>
 8048bb8:	e8 b1 0a 00 00       	call   804966e <phase_defused>
 8048bbd:	c7 04 24 c7 a3 04 08 	movl   $0x804a3c7,(%esp)
 8048bc4:	e8 b7 fc ff ff       	call   8048880 <puts@plt>
 8048bc9:	e8 a6 09 00 00       	call   8049574 <read_line>
 8048bce:	89 04 24             	mov    %eax,(%esp)
 8048bd1:	e8 9d 01 00 00       	call   8048d73 <phase_4>
 8048bd6:	e8 93 0a 00 00       	call   804966e <phase_defused>
 8048bdb:	c7 04 24 94 a4 04 08 	movl   $0x804a494,(%esp)
 8048be2:	e8 99 fc ff ff       	call   8048880 <puts@plt>
 8048be7:	e8 88 09 00 00       	call   8049574 <read_line>
 8048bec:	89 04 24             	mov    %eax,(%esp)
 8048bef:	e8 d6 01 00 00       	call   8048dca <phase_5>
 8048bf4:	e8 75 0a 00 00       	call   804966e <phase_defused>
 8048bf9:	c7 04 24 d8 a3 04 08 	movl   $0x804a3d8,(%esp)
 8048c00:	e8 7b fc ff ff       	call   8048880 <puts@plt>
 8048c05:	e8 6a 09 00 00       	call   8049574 <read_line>
 8048c0a:	89 04 24             	mov    %eax,(%esp)
 8048c0d:	e8 a9 02 00 00       	call   8048ebb <phase_6>
 8048c12:	e8 57 0a 00 00       	call   804966e <phase_defused>
 8048c17:	c7 04 24 b8 a4 04 08 	movl   $0x804a4b8,(%esp)
 8048c1e:	e8 5d fc ff ff       	call   8048880 <puts@plt>
 8048c23:	e8 4c 09 00 00       	call   8049574 <read_line>
 8048c28:	89 04 24             	mov    %eax,(%esp)
 8048c2b:	e8 f4 02 00 00       	call   8048f24 <phase_7>
 8048c30:	e8 39 0a 00 00       	call   804966e <phase_defused>
 8048c35:	c7 04 24 d8 a4 04 08 	movl   $0x804a4d8,(%esp)
 8048c3c:	e8 3f fc ff ff       	call   8048880 <puts@plt>
 8048c41:	e8 2e 09 00 00       	call   8049574 <read_line>
 8048c46:	89 04 24             	mov    %eax,(%esp)
 8048c49:	e8 5e 03 00 00       	call   8048fac <phase_8>
 8048c4e:	e8 1b 0a 00 00       	call   804966e <phase_defused>
 8048c53:	c7 04 24 f6 a3 04 08 	movl   $0x804a3f6,(%esp)
 8048c5a:	e8 21 fc ff ff       	call   8048880 <puts@plt>
 8048c5f:	e8 10 09 00 00       	call   8049574 <read_line>
 8048c64:	89 04 24             	mov    %eax,(%esp)
 8048c67:	e8 7e 04 00 00       	call   80490ea <phase_9>
 8048c6c:	e8 fd 09 00 00       	call   804966e <phase_defused>
 8048c71:	b8 00 00 00 00       	mov    $0x0,%eax
 8048c76:	8b 5d fc             	mov    -0x4(%ebp),%ebx
 8048c79:	c9                   	leave  
 8048c7a:	c3                   	ret    
 8048c7b:	66 90                	xchg   %ax,%ax
 8048c7d:	66 90                	xchg   %ax,%ax
 8048c7f:	90                   	nop

08048c80 <phase_1>:
 8048c80:	83 ec 2c             	sub    $0x2c,%esp
 8048c83:	c7 44 24 1c 00 00 00 	movl   $0x0,0x1c(%esp)
 8048c8a:	00 
 8048c8b:	8d 44 24 1c          	lea    0x1c(%esp),%eax
 8048c8f:	89 44 24 08          	mov    %eax,0x8(%esp)
 8048c93:	c7 44 24 04 70 a7 04 	movl   $0x804a770,0x4(%esp)
 8048c9a:	08 
 8048c9b:	8b 44 24 30          	mov    0x30(%esp),%eax
 8048c9f:	89 04 24             	mov    %eax,(%esp)
 8048ca2:	e8 59 fc ff ff       	call   8048900 <__isoc99_sscanf@plt>
 8048ca7:	83 f8 01             	cmp    $0x1,%eax
 8048caa:	74 05                	je     8048cb1 <phase_1+0x31>
 8048cac:	e8 34 08 00 00       	call   80494e5 <explode_bomb>
 8048cb1:	81 7c 24 1c 97 02 00 	cmpl   $0x297,0x1c(%esp)
 8048cb8:	00 
 8048cb9:	74 05                	je     8048cc0 <phase_1+0x40>
 8048cbb:	e8 25 08 00 00       	call   80494e5 <explode_bomb>
 8048cc0:	83 c4 2c             	add    $0x2c,%esp
 8048cc3:	c3                   	ret    

08048cc4 <phase_2>:
 8048cc4:	83 ec 1c             	sub    $0x1c,%esp
 8048cc7:	c7 44 24 04 00 a5 04 	movl   $0x804a500,0x4(%esp)
 8048cce:	08 
 8048ccf:	8b 44 24 20          	mov    0x20(%esp),%eax
 8048cd3:	89 04 24             	mov    %eax,(%esp)
 8048cd6:	e8 0f 05 00 00       	call   80491ea <strings_not_equal>
 8048cdb:	85 c0                	test   %eax,%eax
 8048cdd:	74 05                	je     8048ce4 <phase_2+0x20>
 8048cdf:	e8 01 08 00 00       	call   80494e5 <explode_bomb>
 8048ce4:	83 c4 1c             	add    $0x1c,%esp
 8048ce7:	c3                   	ret    

08048ce8 <phase_3>:
 8048ce8:	83 ec 1c             	sub    $0x1c,%es p
 8048ceb:	c7 04 24 2c a5 04 08 	movl   $0x804a52c,(%esp)
 8048cf2:	e8 d4 04 00 00       	call   80491cb <string_length>
 8048cf7:	83 c0 01             	add    $0x1,%eax
 8048cfa:	89 04 24             	mov    %eax,(%esp)
 8048cfd:	e8 6e fb ff ff       	call   8048870 <malloc@plt>
 8048d02:	c7 00 49 20 77 61    	movl   $0x61772049,(%eax)
 8048d08:	c7 40 04 73 20 74 72 	movl   $0x72742073,0x4(%eax)
 8048d0f:	c7 40 08 79 69 6e 67 	movl   $0x676e6979,0x8(%eax)
 8048d16:	c7 40 0c 20 74 6f 20 	movl   $0x206f7420,0xc(%eax)
 8048d1d:	c7 40 10 67 69 76 65 	movl   $0x65766967,0x10(%eax)
 8048d24:	c7 40 14 20 54 69 6e 	movl   $0x6e695420,0x14(%eax)
 8048d2b:	c7 40 18 61 20 46 65 	movl   $0x65462061,0x18(%eax)
 8048d32:	c7 40 1c 79 20 6d 6f 	movl   $0x6f6d2079,0x1c(%eax)
 8048d39:	c7 40 20 72 65 20 6d 	movl   $0x6d206572,0x20(%eax)
 8048d40:	c7 40 24 61 74 65 72 	movl   $0x72657461,0x24(%eax)
 8048d47:	c7 40 28 69 61 6c 2e 	movl   $0x2e6c6169,0x28(%eax)
 8048d4e:	c6 40 2c 00          	movb   $0x0,0x2c(%eax)
 8048d52:	c6 40 10 61          	movb   $0x61,0x10(%eax)
 8048d56:	89 44 24 04          	mov    %eax,0x4(%esp)
 8048d5a:	8b 44 24 20          	mov    0x20(%esp),%eax
 8048d5e:	89 04 24             	mov    %eax,(%esp)
 8048d61:	e8 84 04 00 00       	call   80491ea <strings_not_equal>
 8048d66:	85 c0                	test   %eax,%eax
 8048d68:	74 05                	je     8048d6f <phase_3+0x87>
 8048d6a:	e8 76 07 00 00       	call   80494e5 <explode_bomb>
 8048d6f:	83 c4 1c             	add    $0x1c,%esp
 8048d72:	c3                   	ret    

08048d73 <phase_4>:
 8048d73:	56                   	push   %esi
 8048d74:	53                   	push   %ebx
 8048d75:	83 ec 34             	sub    $0x34,%esp
 8048d78:	8d 44 24 18          	lea    0x18(%esp),%eax
 8048d7c:	89 44 24 04          	mov    %eax,0x4(%esp)
 8048d80:	8b 44 24 40          	mov    0x40(%esp),%eax
 8048d84:	89 04 24             	mov    %eax,(%esp)
 8048d87:	e8 98 07 00 00       	call   8049524 <read_six_numbers>
 8048d8c:	83 7c 24 18 05       	cmpl   $0x5,0x18(%esp)
 8048d91:	75 07                	jne    8048d9a <phase_4+0x27>
 8048d93:	83 7c 24 1c 08       	cmpl   $0x8,0x1c(%esp)
 8048d98:	74 20                	je     8048dba <phase_4+0x47>
 8048d9a:	e8 46 07 00 00       	call   80494e5 <explode_bomb>
 8048d9f:	90                   	nop
 8048da0:	eb 18                	jmp    8048dba <phase_4+0x47>
 8048da2:	8b 43 f8             	mov    -0x8(%ebx),%eax
 8048da5:	03 43 fc             	add    -0x4(%ebx),%eax
 8048da8:	39 03                	cmp    %eax,(%ebx)
 8048daa:	74 05                	je     8048db1 <phase_4+0x3e>
 8048dac:	e8 34 07 00 00       	call   80494e5 <explode_bomb>
 8048db1:	83 c3 04             	add    $0x4,%ebx
 8048db4:	39 f3                	cmp    %esi,%ebx
 8048db6:	75 ea                	jne    8048da2 <phase_4+0x2f>
 8048db8:	eb 0a                	jmp    8048dc4 <phase_4+0x51>
 8048dba:	8d 5c 24 20          	lea    0x20(%esp),%ebx
 8048dbe:	8d 74 24 30          	lea    0x30(%esp),%esi
 8048dc2:	eb de                	jmp    8048da2 <phase_4+0x2f>
 8048dc4:	83 c4 34             	add    $0x34,%esp
 8048dc7:	5b                   	pop    %ebx
 8048dc8:	5e                   	pop    %esi
 8048dc9:	c3                   	ret    

08048dca <phase_5>:
 8048dca:	83 ec 2c             	sub    $0x2c,%esp
 8048dcd:	8d 44 24 1c          	lea    0x1c(%esp),%eax
 8048dd1:	89 44 24 0c          	mov    %eax,0xc(%esp)
 8048dd5:	8d 44 24 18          	lea    0x18(%esp),%eax
 8048dd9:	89 44 24 08          	mov    %eax,0x8(%esp)
 8048ddd:	c7 44 24 04 6d a7 04 	movl   $0x804a76d,0x4(%esp)
 8048de4:	08 
 8048de5:	8b 44 24 30          	mov    0x30(%esp),%eax
 8048de9:	89 04 24             	mov    %eax,(%esp)
 8048dec:	e8 0f fb ff ff       	call   8048900 <__isoc99_sscanf@plt>
 8048df1:	83 f8 01             	cmp    $0x1,%eax
 8048df4:	7f 05                	jg     8048dfb <phase_5+0x31>
 8048df6:	e8 ea 06 00 00       	call   80494e5 <explode_bomb>     #BOOOOM b *0x8048df6
 8048dfb:	83 7c 24 18 07       	cmpl   $0x7,0x18(%esp)
 8048e00:	77 3c                	ja     8048e3e <phase_5+0x74>
 8048e02:	8b 44 24 18          	mov    0x18(%esp),%eax
 8048e06:	ff 24 85 5c a5 04 08 	jmp    *0x804a55c(,%eax,4)
 8048e0d:	b8 55 02 00 00       	mov    $0x255,%eax
 8048e12:	eb 3b                	jmp    8048e4f <phase_5+0x85>
 8048e14:	b8 49 01 00 00       	mov    $0x149,%eax
 8048e19:	eb 34                	jmp    8048e4f <phase_5+0x85>
 8048e1b:	b8 84 02 00 00       	mov    $0x284,%eax
 8048e20:	eb 2d                	jmp    8048e4f <phase_5+0x85>
 8048e22:	b8 6c 00 00 00       	mov    $0x6c,%eax
 8048e27:	eb 26                	jmp    8048e4f <phase_5+0x85>
 8048e29:	b8 ab 00 00 00       	mov    $0xab,%eax
 8048e2e:	eb 1f                	jmp    8048e4f <phase_5+0x85>
 8048e30:	b8 c2 01 00 00       	mov    $0x1c2,%eax
 8048e35:	eb 18                	jmp    8048e4f <phase_5+0x85>
 8048e37:	b8 7f 02 00 00       	mov    $0x27f,%eax
 8048e3c:	eb 11                	jmp    8048e4f <phase_5+0x85>
 8048e3e:	e8 a2 06 00 00       	call   80494e5 <explode_bomb>     #BOOOOM b *0x8048e3e
 8048e43:	b8 00 00 00 00       	mov    $0x0,%eax
 8048e48:	eb 05                	jmp    8048e4f <phase_5+0x85>
 8048e4a:	b8 dc 02 00 00       	mov    $0x2dc,%eax
 8048e4f:	3b 44 24 1c          	cmp    0x1c(%esp),%eax
 8048e53:	74 05                	je     8048e5a <phase_5+0x90>
 8048e55:	e8 8b 06 00 00       	call   80494e5 <explode_bomb>     #BOOOOM b *0x8048e55
 8048e5a:	83 c4 2c             	add    $0x2c,%esp
 8048e5d:	c3                   	ret    

08048e5e <func6>:
 8048e5e:	56                   	push   %esi                   # b *0x8048e5e
 8048e5f:	53                   	push   %ebx
 8048e60:	83 ec 14             	sub    $0x14,%esp
 8048e63:	8b 54 24 20          	mov    0x20(%esp),%edx
 8048e67:	8b 44 24 24          	mov    0x24(%esp),%eax
 8048e6b:	8b 74 24 28          	mov    0x28(%esp),%esi
 8048e6f:	89 f1                	mov    %esi,%ecx
 8048e71:	29 c1                	sub    %eax,%ecx
 8048e73:	89 cb                	mov    %ecx,%ebx
 8048e75:	c1 eb 1f             	shr    $0x1f,%ebx
 8048e78:	01 d9                	add    %ebx,%ecx
 8048e7a:	d1 f9                	sar    %ecx
 8048e7c:	8d 1c 01             	lea    (%ecx,%eax,1),%ebx
 8048e7f:	39 d3                	cmp    %edx,%ebx              # compare 7f
 8048e81:	7e 17                	jle    8048e9a <func6+0x3c>
 8048e83:	8d 4b ff             	lea    -0x1(%ebx),%ecx
 8048e86:	89 4c 24 08          	mov    %ecx,0x8(%esp)
 8048e8a:	89 44 24 04          	mov    %eax,0x4(%esp)
 8048e8e:	89 14 24             	mov    %edx,(%esp)
 8048e91:	e8 c8 ff ff ff       	call   8048e5e <func6>
 8048e96:	01 d8                	add    %ebx,%eax
 8048e98:	eb 1b                	jmp    8048eb5 <func6+0x57>
 8048e9a:	89 d8                	mov    %ebx,%eax 
 8048e9c:	39 d3                	cmp    %edx,%ebx             # compare 9c
 8048e9e:	7d 15                	jge    8048eb5 <func6+0x57>  
 8048ea0:	89 74 24 08          	mov    %esi,0x8(%esp)
 8048ea4:	8d 43 01             	lea    0x1(%ebx),%eax
 8048ea7:	89 44 24 04          	mov    %eax,0x4(%esp)
 8048eab:	89 14 24             	mov    %edx,(%esp)
 8048eae:	e8 ab ff ff ff       	call   8048e5e <func6>
 8048eb3:	01 d8                	add    %ebx,%eax
 8048eb5:	83 c4 14             	add    $0x14,%esp
 8048eb8:	5b                   	pop    %ebx
 8048eb9:	5e                   	pop    %esi
 8048eba:	c3                   	ret                         # b *0x8048eba

08048ebb <phase_6>:
 8048ebb:	83 ec 2c             	sub    $0x2c,%esp
 8048ebe:	8d 44 24 1c          	lea    0x1c(%esp),%eax
 8048ec2:	89 44 24 0c          	mov    %eax,0xc(%esp)
 8048ec6:	8d 44 24 18          	lea    0x18(%esp),%eax
 8048eca:	89 44 24 08          	mov    %eax,0x8(%esp)
 8048ece:	c7 44 24 04 6d a7 04 	movl   $0x804a76d,0x4(%esp)
 8048ed5:	08 
 8048ed6:	8b 44 24 30          	mov    0x30(%esp),%eax
 8048eda:	89 04 24             	mov    %eax,(%esp)
 8048edd:	e8 1e fa ff ff       	call   8048900 <__isoc99_sscanf@plt>
 8048ee2:	83 f8 02             	cmp    $0x2,%eax
 8048ee5:	75 07                	jne    8048eee <phase_6+0x33>
 8048ee7:	83 7c 24 18 0e       	cmpl   $0xe,0x18(%esp)
 8048eec:	76 05                	jbe    8048ef3 <phase_6+0x38>
 8048eee:	e8 f2 05 00 00       	call   80494e5 <explode_bomb>        #BOOM b *0x8048eee
 8048ef3:	c7 44 24 08 0e 00 00 	movl   $0xe,0x8(%esp)
 8048efa:	00 
 8048efb:	c7 44 24 04 00 00 00 	movl   $0x0,0x4(%esp)
 8048f02:	00 
 8048f03:	8b 44 24 18          	mov    0x18(%esp),%eax
 8048f07:	89 04 24             	mov    %eax,(%esp)
 8048f0a:	e8 4f ff ff ff       	call   8048e5e <func6>
 8048f0f:	83 f8 15             	cmp    $0x15,%eax
 8048f12:	75 07                	jne    8048f1b <phase_6+0x60>
 8048f14:	83 7c 24 1c 15       	cmpl   $0x15,0x1c(%esp)
 8048f19:	74 05                	je     8048f20 <phase_6+0x65>
 8048f1b:	e8 c5 05 00 00       	call   80494e5 <explode_bomb>       #BOOM b *0x8048f1b
 8048f20:	83 c4 2c             	add    $0x2c,%esp
 8048f23:	c3                   	ret                                 # END b *0x8048f23

08048f24 <phase_7>:
 8048f24:	53                   	push   %ebx
 8048f25:	83 ec 28             	sub    $0x28,%esp
 8048f28:	8b 5c 24 30          	mov    0x30(%esp),%ebx
 8048f2c:	65 a1 14 00 00 00    	mov    %gs:0x14,%eax
 8048f32:	89 44 24 1c          	mov    %eax,0x1c(%esp)
 8048f36:	31 c0                	xor    %eax,%eax
 8048f38:	89 1c 24             	mov    %ebx,(%esp)
 8048f3b:	e8 8b 02 00 00       	call   80491cb <string_length>
 8048f40:	83 f8 06             	cmp    $0x6,%eax
 8048f43:	74 45                	je     8048f8a <phase_7+0x66>
 8048f45:	e8 9b 05 00 00       	call   80494e5 <explode_bomb>   # BOOM b *0x8048f45
 8048f4a:	eb 3e                	jmp    8048f8a <phase_7+0x66>
 8048f4c:	0f b6 14 03          	movzbl (%ebx,%eax,1),%edx
 8048f50:	83 e2 0f             	and    $0xf,%edx
 8048f53:	0f b6 92 7c a5 04 08 	movzbl 0x804a57c(%edx),%edx
 8048f5a:	88 54 04 15          	mov    %dl,0x15(%esp,%eax,1)
 8048f5e:	83 c0 01             	add    $0x1,%eax
 8048f61:	83 f8 06             	cmp    $0x6,%eax
 8048f64:	75 e6                	jne    8048f4c <phase_7+0x28>
 8048f66:	c6 44 24 1b 00       	movb   $0x0,0x1b(%esp)
 8048f6b:	c7 44 24 04 f7 a4 04 	movl   $0x804a4f7,0x4(%esp)
 8048f72:	08 
 8048f73:	8d 44 24 15          	lea    0x15(%esp),%eax
 8048f77:	89 04 24             	mov    %eax,(%esp)
 8048f7a:	e8 6b 02 00 00       	call   80491ea <strings_not_equal>
 8048f7f:	85 c0                	test   %eax,%eax
 8048f81:	74 0f                	je     8048f92 <phase_7+0x6e>   # EXIT PHASE
 8048f83:	e8 5d 05 00 00       	call   80494e5 <explode_bomb>   # BOOM b *0x8048f83
 8048f88:	eb 08                	jmp    8048f92 <phase_7+0x6e>
 8048f8a:	b8 00 00 00 00       	mov    $0x0,%eax
 8048f8f:	90                   	nop
 8048f90:	eb ba                	jmp    8048f4c <phase_7+0x28>
 8048f92:	8b 44 24 1c          	mov    0x1c(%esp),%eax
 8048f96:	65 33 05 14 00 00 00 	xor    %gs:0x14,%eax
 8048f9d:	8d 76 00             	lea    0x0(%esi),%esi
 8048fa0:	74 05                	je     8048fa7 <phase_7+0x83>
 8048fa2:	e8 89 f8 ff ff       	call   8048830 <__stack_chk_fail@plt>
 8048fa7:	83 c4 28             	add    $0x28,%esp
 8048faa:	5b                   	pop    %ebx
 8048fab:	c3                   	ret    

phase_7:
0x08048f24 <+0>:	push   %ebx
 0x08048f25 <+1>:	sub    $0x28,%esp
 0x08048f28 <+4>:	mov    0x30(%esp),%ebx
 0x08048f2c <+8>:	mov    %gs:0x14,%eax
 0x08048f32 <+14>:	mov    %eax,0x1c(%esp)
 0x08048f36 <+18>:	xor    %eax,%eax
 0x08048f38 <+20>:	mov    %ebx,(%esp)
 0x08048f3b <+23>:	call   0x80491cb <string_length>
 0x08048f40 <+28>:	cmp    $0x6,%eax
 0x08048f43 <+31>:	je     0x8048f8a <phase_7+102>             # rest eax and loop 40
 0x08048f45 <+33>:	call   0x80494e5 <explode_bomb>            # BOOM b *0x8048f45
 0x08048f4a <+38>:	jmp    0x8048f8a <phase_7+102>             # not much here
 0x08048f4c <+40>:	movzbl (%ebx,%eax,1),%edx
 0x08048f50 <+44>:	and    $0xf,%edx
 0x08048f53 <+47>:	movzbl 0x804a57c(%edx),%edx
 0x08048f5a <+54>:	mov    %dl,0x15(%esp,%eax,1)
 0x08048f5e <+58>:	add    $0x1,%eax
 0x08048f61 <+61>:	cmp    $0x6,%eax
 0x08048f64 <+64>:	jne    0x8048f4c <phase_7+40>              # condition for loop BREAK
 0x08048f66 <+66>:	movb   $0x0,0x1b(%esp)
 0x08048f6b <+71>:	movl   $0x804a4f7,0x4(%esp)
 0x08048f73 <+79>:	lea    0x15(%esp),%eax
 0x08048f77 <+83>:	mov    %eax,(%esp)
 0x08048f7a <+86>:	call   0x80491ea <strings_not_equal>
 0x08048f7f <+91>:	test   %eax,%eax
 0x08048f81 <+93>:	je     0x8048f92 <phase_7+110>             # EXIT PHASE
 0x08048f83 <+95>:	call   0x80494e5 <explode_bomb>            # BOOM b *0x8048f83
 0x08048f88 <+100>:	jmp    0x8048f92 <phase_7+110>
 0x08048f8a <+102>:	mov    $0x0,%eax
 0x08048f8f <+107>:	nop
 0x08048f90 <+108>:	jmp    0x8048f4c <phase_7+40>
 0x08048f92 <+110>:	mov    0x1c(%esp),%eax
 0x08048f96 <+114>:	xor    %gs:0x14,%eax
 0x08048f9d <+121>:	lea    0x0(%esi),%esi
 0x08048fa0 <+124>:	je     0x8048fa7 <phase_7+131>
 0x08048fa2 <+126>:	call   0x8048830 <__stack_chk_fail@plt>
 0x08048fa7 <+131>:	add    $0x28,%esp
 0x08048faa <+134>:	pop    %ebx
 0x08048fab <+135>:	ret    

08048fac <phase_8>:
 8048fac:	56                   	push   %esi
 8048fad:	53                   	push   %ebx
 8048fae:	83 ec 44             	sub    $0x44,%esp
 8048fb1:	8d 44 24 10          	lea    0x10(%esp),%eax
 8048fb5:	89 44 24 04          	mov    %eax,0x4(%esp)
 8048fb9:	8b 44 24 50          	mov    0x50(%esp),%eax
 8048fbd:	89 04 24             	mov    %eax,(%esp)
 8048fc0:	e8 5f 05 00 00       	call   8049524 <read_six_numbers>
 8048fc5:	be 00 00 00 00       	mov    $0x0,%esi
 8048fca:	8b 44 b4 10          	mov    0x10(%esp,%esi,4),%eax
 8048fce:	83 e8 01             	sub    $0x1,%eax
 8048fd1:	83 f8 05             	cmp    $0x5,%eax
 8048fd4:	76 05                	jbe    8048fdb <phase_8+0x2f>
 8048fd6:	e8 0a 05 00 00       	call   80494e5 <explode_bomb>
 8048fdb:	83 c6 01             	add    $0x1,%esi
 8048fde:	83 fe 06             	cmp    $0x6,%esi
 8048fe1:	74 1b                	je     8048ffe <phase_8+0x52>
 8048fe3:	89 f3                	mov    %esi,%ebx
 8048fe5:	8b 44 9c 10          	mov    0x10(%esp,%ebx,4),%eax
 8048fe9:	39 44 b4 0c          	cmp    %eax,0xc(%esp,%esi,4)
 8048fed:	75 05                	jne    8048ff4 <phase_8+0x48>
 8048fef:	e8 f1 04 00 00       	call   80494e5 <explode_bomb>
 8048ff4:	83 c3 01             	add    $0x1,%ebx
 8048ff7:	83 fb 05             	cmp    $0x5,%ebx
 8048ffa:	7e e9                	jle    8048fe5 <phase_8+0x39>
 8048ffc:	eb cc                	jmp    8048fca <phase_8+0x1e>
 8048ffe:	8d 44 24 10          	lea    0x10(%esp),%eax
 8049002:	8d 5c 24 28          	lea    0x28(%esp),%ebx
 8049006:	b9 07 00 00 00       	mov    $0x7,%ecx
 804900b:	89 ca                	mov    %ecx,%edx
 804900d:	2b 10                	sub    (%eax),%edx
 804900f:	89 10                	mov    %edx,(%eax)
 8049011:	83 c0 04             	add    $0x4,%eax
 8049014:	39 d8                	cmp    %ebx,%eax
 8049016:	75 f3                	jne    804900b <phase_8+0x5f>
 8049018:	bb 00 00 00 00       	mov    $0x0,%ebx
 804901d:	eb 1d                	jmp    804903c <phase_8+0x90>
 804901f:	8b 52 08             	mov    0x8(%edx),%edx
 8049022:	83 c0 01             	add    $0x1,%eax
 8049025:	39 c8                	cmp    %ecx,%eax
 8049027:	75 f6                	jne    804901f <phase_8+0x73>
 8049029:	eb 05                	jmp    8049030 <phase_8+0x84>
 804902b:	ba 74 d1 04 08       	mov    $0x804d174,%edx
 8049030:	89 54 b4 28          	mov    %edx,0x28(%esp,%esi,4)
 8049034:	83 c3 01             	add    $0x1,%ebx
 8049037:	83 fb 06             	cmp    $0x6,%ebx
 804903a:	74 17                	je     8049053 <phase_8+0xa7>
 804903c:	89 de                	mov    %ebx,%esi
 804903e:	8b 4c 9c 10          	mov    0x10(%esp,%ebx,4),%ecx
 8049042:	83 f9 01             	cmp    $0x1,%ecx
 8049045:	7e e4                	jle    804902b <phase_8+0x7f>
 8049047:	b8 01 00 00 00       	mov    $0x1,%eax
 804904c:	ba 74 d1 04 08       	mov    $0x804d174,%edx
 8049051:	eb cc                	jmp    804901f <phase_8+0x73>
 8049053:	8b 5c 24 28          	mov    0x28(%esp),%ebx
 8049057:	8d 44 24 2c          	lea    0x2c(%esp),%eax
 804905b:	8d 74 24 40          	lea    0x40(%esp),%esi
 804905f:	89 d9                	mov    %ebx,%ecx
 8049061:	8b 10                	mov    (%eax),%edx
 8049063:	89 51 08             	mov    %edx,0x8(%ecx)
 8049066:	83 c0 04             	add    $0x4,%eax
 8049069:	39 f0                	cmp    %esi,%eax
 804906b:	74 04                	je     8049071 <phase_8+0xc5>
 804906d:	89 d1                	mov    %edx,%ecx
 804906f:	eb f0                	jmp    8049061 <phase_8+0xb5>
 8049071:	c7 42 08 00 00 00 00 	movl   $0x0,0x8(%edx)
 8049078:	be 05 00 00 00       	mov    $0x5,%esi
 804907d:	8b 43 08             	mov    0x8(%ebx),%eax
 8049080:	8b 00                	mov    (%eax),%eax
 8049082:	39 03                	cmp    %eax,(%ebx)
 8049084:	7d 05                	jge    804908b <phase_8+0xdf>
 8049086:	e8 5a 04 00 00       	call   80494e5 <explode_bomb>
 804908b:	8b 5b 08             	mov    0x8(%ebx),%ebx
 804908e:	83 ee 01             	sub    $0x1,%esi
 8049091:	75 ea                	jne    804907d <phase_8+0xd1>
 8049093:	83 c4 44             	add    $0x44,%esp
 8049096:	5b                   	pop    %ebx
 8049097:	5e                   	pop    %esi
 8049098:	c3                   	ret    

phase_8:
0x08048fac <+0>:	push   %esi
   0x08048fad <+1>:	push   %ebx
   0x08048fae <+2>:	sub    $0x44,%esp
   0x08048fb1 <+5>:	lea    0x10(%esp),%eax
   0x08048fb5 <+9>:	mov    %eax,0x4(%esp)
   0x08048fb9 <+13>:	mov    0x50(%esp),%eax
   0x08048fbd <+17>:	mov    %eax,(%esp)
   0x08048fc0 <+20>:	call   0x8049524 <read_six_numbers>
   0x08048fc5 <+25>:	mov    $0x0,%esi
   0x08048fca <+30>:	mov    0x10(%esp,%esi,4),%eax
   0x08048fce <+34>:	sub    $0x1,%eax
   0x08048fd1 <+37>:	cmp    $0x5,%eax
   0x08048fd4 <+40>:	jbe    0x8048fdb <phase_8+47>
   0x08048fd6 <+42>:	call   0x80494e5 <explode_bomb>         #(42)BOOM b *0x08048fd6
   0x08048fdb <+47>:	add    $0x1,%esi
   0x08048fde <+50>:	cmp    $0x6,%esi
   0x08048fe1 <+53>:	je     0x8048ffe <phase_8+82>
   0x08048fe3 <+55>:	mov    %esi,%ebx
   0x08048fe5 <+57>:	mov    0x10(%esp,%ebx,4),%eax          # loop cycles numbers
   0x08048fe9 <+61>:	cmp    %eax,0xc(%esp,%esi,4)
   0x08048fed <+65>:	jne    0x8048ff4 <phase_8+72>
   0x08048fef <+67>:	call   0x80494e5 <explode_bomb>         #(67)BOOM b *0x08048fef
   0x08048ff4 <+72>:	add    $0x1,%ebx
   0x08048ff7 <+75>:	cmp    $0x5,%ebx
   0x08048ffa <+78>:	jle    0x8048fe5 <phase_8+57>
   0x08048ffc <+80>:	jmp    0x8048fca <phase_8+30>
   0x08048ffe <+82>:	lea    0x10(%esp),%eax           # PART 2
   0x08049002 <+86>:	lea    0x28(%esp),%ebx
   0x08049006 <+90>:	mov    $0x7,%ecx
   0x0804900b <+95>:	mov    %ecx,%edx
   0x0804900d <+97>:	sub    (%eax),%edx
   0x0804900f <+99>:	mov    %edx,(%eax)
   0x08049011 <+101>:	add    $0x4,%eax
   0x08049014 <+104>:	cmp    %ebx,%eax
   0x08049016 <+106>:	jne    0x804900b <phase_8+95>
   0x08049018 <+108>:	mov    $0x0,%ebx
   0x0804901d <+113>:	jmp    0x804903c <phase_8+144>
   0x0804901f <+115>:	mov    0x8(%edx),%edx
   0x08049022 <+118>:	add    $0x1,%eax
   0x08049025 <+121>:	cmp    %ecx,%eax
   0x08049027 <+123>:	jne    0x804901f <phase_8+115>
   0x08049029 <+125>:	jmp    0x8049030 <phase_8+132>
   0x0804902b <+127>:	mov    $0x804d174,%edx
   0x08049030 <+132>:	mov    %edx,0x28(%esp,%esi,4)
   0x08049034 <+136>:	add    $0x1,%ebx
   0x08049037 <+139>:	cmp    $0x6,%ebx
   0x0804903a <+142>:	je     0x8049053 <phase_8+167> 
   0x0804903c <+144>:	mov    %ebx,%esi
   0x0804903e <+146>:	mov    0x10(%esp,%ebx,4),%ecx
   0x08049042 <+150>:	cmp    $0x1,%ecx
   0x08049045 <+153>:	jle    0x804902b <phase_8+127>
   0x08049047 <+155>:	mov    $0x1,%eax
   0x0804904c <+160>:	mov    $0x804d174,%edx
   0x08049051 <+165>:	jmp    0x804901f <phase_8+115>
   0x08049053 <+167>:	mov    0x28(%esp),%ebx
   0x08049057 <+171>:	lea    0x2c(%esp),%eax
   0x0804905b <+175>:	lea    0x40(%esp),%esi
   0x0804905f <+179>:	mov    %ebx,%ecx
   0x08049061 <+181>:	mov    (%eax),%edx
   0x08049063 <+183>:	mov    %edx,0x8(%ecx)
   0x08049066 <+186>:	add    $0x4,%eax
   0x08049069 <+189>:	cmp    %esi,%eax
   0x0804906b <+191>:	je     0x8049071 <phase_8+197>
   0x0804906d <+193>:	mov    %edx,%ecx
   0x0804906f <+195>:	jmp    0x8049061 <phase_8+181>
   0x08049071 <+197>:	movl   $0x0,0x8(%edx)
   0x08049078 <+204>:	mov    $0x5,%esi
   0x0804907d <+209>:	mov    0x8(%ebx),%eax
   0x08049080 <+212>:	mov    (%eax),%eax
   0x08049082 <+214>:	cmp    %eax,(%ebx)
   0x08049084 <+216>:	jge    0x804908b <phase_8+223>
   0x08049086 <+218>:	call   0x80494e5 <explode_bomb>           #(218)BOOM b *0x08049086
   0x0804908b <+223>:	mov    0x8(%ebx),%ebx
   0x0804908e <+226>:	sub    $0x1,%esi
   0x08049091 <+229>:	jne    0x804907d <phase_8+209>
   0x08049093 <+231>:	add    $0x44,%esp
   0x08049096 <+234>:	pop    %ebx
   0x08049097 <+235>:	pop    %esi
   0x08049098 <+236>:	ret

08049099 <fun9>:
 8049099:	53                   	push   %ebx
 804909a:	83 ec 18             	sub    $0x18,%esp
 804909d:	8b 54 24 20          	mov    0x20(%esp),%edx
 80490a1:	8b 4c 24 24          	mov    0x24(%esp),%ecx
 80490a5:	85 d2                	test   %edx,%edx
 80490a7:	74 37                	je     80490e0 <fun9+0x47>
 80490a9:	8b 1a                	mov    (%edx),%ebx
 80490ab:	39 cb                	cmp    %ecx,%ebx
 80490ad:	7e 13                	jle    80490c2 <fun9+0x29>
 80490af:	89 4c 24 04          	mov    %ecx,0x4(%esp)
 80490b3:	8b 42 04             	mov    0x4(%edx),%eax
 80490b6:	89 04 24             	mov    %eax,(%esp)
 80490b9:	e8 db ff ff ff       	call   8049099 <fun9>
 80490be:	01 c0                	add    %eax,%eax
 80490c0:	eb 23                	jmp    80490e5 <fun9+0x4c>
 80490c2:	b8 00 00 00 00       	mov    $0x0,%eax
 80490c7:	39 cb                	cmp    %ecx,%ebx
 80490c9:	74 1a                	je     80490e5 <fun9+0x4c>
 80490cb:	89 4c 24 04          	mov    %ecx,0x4(%esp)
 80490cf:	8b 42 08             	mov    0x8(%edx),%eax
 80490d2:	89 04 24             	mov    %eax,(%esp)
 80490d5:	e8 bf ff ff ff       	call   8049099 <fun9>
 80490da:	8d 44 00 01          	lea    0x1(%eax,%eax,1),%eax
 80490de:	eb 05                	jmp    80490e5 <fun9+0x4c>
 80490e0:	b8 ff ff ff ff       	mov    $0xffffffff,%eax
 80490e5:	83 c4 18             	add    $0x18,%esp
 80490e8:	5b                   	pop    %ebx
 80490e9:	c3                   	ret    

080490ea <phase_9>:
 80490ea:	53                   	push   %ebx
 80490eb:	83 ec 18             	sub    $0x18,%esp
 80490ee:	c7 44 24 08 0a 00 00 	movl   $0xa,0x8(%esp)
 80490f5:	00 
 80490f6:	c7 44 24 04 00 00 00 	movl   $0x0,0x4(%esp)
 80490fd:	00 
 80490fe:	8b 44 24 20          	mov    0x20(%esp),%eax
 8049102:	89 04 24             	mov    %eax,(%esp)
 8049105:	e8 66 f8 ff ff       	call   8048970 <strtol@plt>
 804910a:	89 c3                	mov    %eax,%ebx
 804910c:	8d 40 ff             	lea    -0x1(%eax),%eax
 804910f:	3d ec 03 00 00       	cmp    $0x3ec,%eax
 8049114:	76 05                	jbe    804911b <phase_9+0x31>
 8049116:	e8 ca 03 00 00       	call   80494e5 <explode_bomb>
 804911b:	89 5c 24 04          	mov    %ebx,0x4(%esp)
 804911f:	c7 04 24 c0 d0 04 08 	movl   $0x804d0c0,(%esp)
 8049126:	e8 6e ff ff ff       	call   8049099 <fun9>
 804912b:	83 f8 03             	cmp    $0x3,%eax
 804912e:	74 05                	je     8049135 <phase_9+0x4b>
 8049130:	e8 b0 03 00 00       	call   80494e5 <explode_bomb>
 8049135:	83 c4 18             	add    $0x18,%esp
 8049138:	5b                   	pop    %ebx
 8049139:	c3                   	ret    
 804913a:	66 90                	xchg   %ax,%ax
 804913c:	66 90                	xchg   %ax,%ax
 804913e:	66 90                	xchg   %ax,%ax

 <fun9>:

   0x08049099 <+0>:	push   %ebx
   0x0804909a <+1>:	sub    $0x18,%esp
   0x0804909d <+4>:	mov    0x20(%esp),%edx
   0x080490a1 <+8>:	mov    0x24(%esp),%ecx
   0x080490a5 <+12>:	test   %edx,%edx
   0x080490a7 <+14>:	je     0x80490e0 <fun9+71>
   0x080490a9 <+16>:	mov    (%edx),%ebx
   0x080490ab <+18>:	cmp    %ecx,%ebx
   0x080490ad <+20>:	jle    0x80490c2 <fun9+41>
   0x080490af <+22>:	mov    %ecx,0x4(%esp)
   0x080490b3 <+26>:	mov    0x4(%edx),%eax
   0x080490b6 <+29>:	mov    %eax,(%esp)
   0x080490b9 <+32>:	call   0x8049099 <fun9>          # RECURSION
   0x080490be <+37>:	add    %eax,%eax
   0x080490c0 <+39>:	jmp    0x80490e5 <fun9+76>
   0x080490c2 <+41>:	mov    $0x0,%eax
   0x080490c7 <+46>:	cmp    %ecx,%ebx
   0x080490c9 <+48>:	je     0x80490e5 <fun9+76>
   0x080490cb <+50>:	mov    %ecx,0x4(%esp)
   0x080490cf <+54>:	mov    0x8(%edx),%eax
   0x080490d2 <+57>:	mov    %eax,(%esp)
   0x080490d5 <+60>:	call   0x8049099 <fun9>          # RECURSION
   0x080490da <+65>:	lea    0x1(%eax,%eax,1),%eax
   0x080490de <+69>:	jmp    0x80490e5 <fun9+76>
   0x080490e0 <+71>:	mov    $0xffffffff,%eax
   0x080490e5 <+76>:	add    $0x18,%esp
   0x080490e8 <+79>:	pop    %ebx
   0x080490e9 <+80>:	ret

 <phase_9>:
   0x080490ea <+0>:	push   %ebx
   0x080490eb <+1>:	sub    $0x18,%esp
   0x080490ee <+4>:	movl   $0xa,0x8(%esp)
   0x080490f6 <+12>:	movl   $0x0,0x4(%esp)
   0x080490fe <+20>:	mov    0x20(%esp),%eax
   0x08049102 <+24>:	mov    %eax,(%esp)
   0x08049105 <+27>:	call   0x8048970 <strtol@plt>
   0x0804910a <+32>:	mov    %eax,%ebx
   0x0804910c <+34>:	lea    -0x1(%eax),%eax
   0x0804910f <+37>:	cmp    $0x3ec,%eax
   0x08049114 <+42>:	jbe    0x804911b <phase_9+49>
   0x08049116 <+44>:	call   0x80494e5 <explode_bomb>       # BOOM b *0x08049116
   0x0804911b <+49>:	mov    %ebx,0x4(%esp)
   0x0804911f <+53>:	movl   $0x804d0c0,(%esp)
   0x08049126 <+60>:	call   0x8049099 <fun9>
   0x0804912b <+65>:	cmp    $0x3,%eax
   0x0804912e <+68>:	je     0x8049135 <phase_9+75>
   0x08049130 <+70>:	call   0x80494e5 <explode_bomb>       # BOOM b *0x08049130
   0x08049135 <+75>:	add    $0x18,%esp
   0x08049138 <+78>:	pop    %ebx
   0x08049139 <+79>:	ret

08049140 <sig_handler>:
 8049140:	83 ec 1c             	sub    $0x1c,%esp
 8049143:	c7 04 24 8c a5 04 08 	movl   $0x804a58c,(%esp)
 804914a:	e8 31 f7 ff ff       	call   8048880 <puts@plt>
 804914f:	c7 04 24 03 00 00 00 	movl   $0x3,(%esp)
 8049156:	e8 b5 f6 ff ff       	call   8048810 <sleep@plt>
 804915b:	c7 44 24 04 e9 a6 04 	movl   $0x804a6e9,0x4(%esp)
 8049162:	08 
 8049163:	c7 04 24 01 00 00 00 	movl   $0x1,(%esp)
 804916a:	e8 c1 f7 ff ff       	call   8048930 <__printf_chk@plt>
 804916f:	a1 00 d8 04 08       	mov    0x804d800,%eax
 8049174:	89 04 24             	mov    %eax,(%esp)
 8049177:	e8 64 f6 ff ff       	call   80487e0 <fflush@plt>
 804917c:	c7 04 24 01 00 00 00 	movl   $0x1,(%esp)
 8049183:	e8 88 f6 ff ff       	call   8048810 <sleep@plt>
 8049188:	c7 04 24 f1 a6 04 08 	movl   $0x804a6f1,(%esp)
 804918f:	e8 ec f6 ff ff       	call   8048880 <puts@plt>
 8049194:	c7 04 24 10 00 00 00 	movl   $0x10,(%esp)
 804919b:	e8 20 f7 ff ff       	call   80488c0 <exit@plt>

080491a0 <invalid_phase>:
 80491a0:	83 ec 1c             	sub    $0x1c,%esp
 80491a3:	8b 44 24 20          	mov    0x20(%esp),%eax
 80491a7:	89 44 24 08          	mov    %eax,0x8(%esp)
 80491ab:	c7 44 24 04 f9 a6 04 	movl   $0x804a6f9,0x4(%esp)
 80491b2:	08 
 80491b3:	c7 04 24 01 00 00 00 	movl   $0x1,(%esp)
 80491ba:	e8 71 f7 ff ff       	call   8048930 <__printf_chk@plt>
 80491bf:	c7 04 24 08 00 00 00 	movl   $0x8,(%esp)
 80491c6:	e8 f5 f6 ff ff       	call   80488c0 <exit@plt>

080491cb <string_length>:
 80491cb:	8b 54 24 04          	mov    0x4(%esp),%edx
 80491cf:	80 3a 00             	cmpb   $0x0,(%edx)
 80491d2:	74 10                	je     80491e4 <string_length+0x19>
 80491d4:	b8 00 00 00 00       	mov    $0x0,%eax
 80491d9:	83 c0 01             	add    $0x1,%eax
 80491dc:	80 3c 02 00          	cmpb   $0x0,(%edx,%eax,1)
 80491e0:	75 f7                	jne    80491d9 <string_length+0xe>
 80491e2:	f3 c3                	repz ret 
 80491e4:	b8 00 00 00 00       	mov    $0x0,%eax
 80491e9:	c3                   	ret    

080491ea <strings_not_equal>:
 80491ea:	57                   	push   %edi
 80491eb:	56                   	push   %esi
 80491ec:	53                   	push   %ebx
 80491ed:	83 ec 04             	sub    $0x4,%esp
 80491f0:	8b 5c 24 14          	mov    0x14(%esp),%ebx
 80491f4:	8b 74 24 18          	mov    0x18(%esp),%esi
 80491f8:	89 1c 24             	mov    %ebx,(%esp)
 80491fb:	e8 cb ff ff ff       	call   80491cb <string_length>
 8049200:	89 c7                	mov    %eax,%edi
 8049202:	89 34 24             	mov    %esi,(%esp)
 8049205:	e8 c1 ff ff ff       	call   80491cb <string_length>
 804920a:	ba 01 00 00 00       	mov    $0x1,%edx
 804920f:	39 c7                	cmp    %eax,%edi
 8049211:	75 3a                	jne    804924d <strings_not_equal+0x63>
 8049213:	0f b6 03             	movzbl (%ebx),%eax
 8049216:	84 c0                	test   %al,%al
 8049218:	74 20                	je     804923a <strings_not_equal+0x50>
 804921a:	3a 06                	cmp    (%esi),%al
 804921c:	74 08                	je     8049226 <strings_not_equal+0x3c>
 804921e:	66 90                	xchg   %ax,%ax
 8049220:	eb 1f                	jmp    8049241 <strings_not_equal+0x57>
 8049222:	3a 06                	cmp    (%esi),%al
 8049224:	75 22                	jne    8049248 <strings_not_equal+0x5e>
 8049226:	83 c3 01             	add    $0x1,%ebx
 8049229:	83 c6 01             	add    $0x1,%esi
 804922c:	0f b6 03             	movzbl (%ebx),%eax
 804922f:	84 c0                	test   %al,%al
 8049231:	75 ef                	jne    8049222 <strings_not_equal+0x38>
 8049233:	ba 00 00 00 00       	mov    $0x0,%edx
 8049238:	eb 13                	jmp    804924d <strings_not_equal+0x63>
 804923a:	ba 00 00 00 00       	mov    $0x0,%edx
 804923f:	eb 0c                	jmp    804924d <strings_not_equal+0x63>
 8049241:	ba 01 00 00 00       	mov    $0x1,%edx
 8049246:	eb 05                	jmp    804924d <strings_not_equal+0x63>
 8049248:	ba 01 00 00 00       	mov    $0x1,%edx
 804924d:	89 d0                	mov    %edx,%eax
 804924f:	83 c4 04             	add    $0x4,%esp
 8049252:	5b                   	pop    %ebx
 8049253:	5e                   	pop    %esi
 8049254:	5f                   	pop    %edi
 8049255:	c3                   	ret    

08049256 <initialize_bomb>:
 8049256:	56                   	push   %esi
 8049257:	53                   	push   %ebx
 8049258:	81 ec 64 20 00 00    	sub    $0x2064,%esp
 804925e:	65 a1 14 00 00 00    	mov    %gs:0x14,%eax
 8049264:	89 84 24 5c 20 00 00 	mov    %eax,0x205c(%esp)
 804926b:	31 c0                	xor    %eax,%eax
 804926d:	c7 44 24 04 40 91 04 	movl   $0x8049140,0x4(%esp)
 8049274:	08 
 8049275:	c7 04 24 02 00 00 00 	movl   $0x2,(%esp)
 804927c:	e8 7f f5 ff ff       	call   8048800 <signal@plt>
 8049281:	c7 44 24 04 40 00 00 	movl   $0x40,0x4(%esp)
 8049288:	00 
 8049289:	8d 44 24 1c          	lea    0x1c(%esp),%eax
 804928d:	89 04 24             	mov    %eax,(%esp)
 8049290:	e8 bb f5 ff ff       	call   8048850 <gethostname@plt>
 8049295:	85 c0                	test   %eax,%eax
 8049297:	75 14                	jne    80492ad <initialize_bomb+0x57>
 8049299:	a1 e0 d5 04 08       	mov    0x804d5e0,%eax
 804929e:	bb 00 00 00 00       	mov    $0x0,%ebx
 80492a3:	8d 74 24 1c          	lea    0x1c(%esp),%esi
 80492a7:	85 c0                	test   %eax,%eax
 80492a9:	75 1a                	jne    80492c5 <initialize_bomb+0x6f>
 80492ab:	eb 60                	jmp    804930d <initialize_bomb+0xb7>
 80492ad:	c7 04 24 c4 a5 04 08 	movl   $0x804a5c4,(%esp)
 80492b4:	e8 c7 f5 ff ff       	call   8048880 <puts@plt>
 80492b9:	c7 04 24 08 00 00 00 	movl   $0x8,(%esp)
 80492c0:	e8 fb f5 ff ff       	call   80488c0 <exit@plt>
 80492c5:	89 74 24 04          	mov    %esi,0x4(%esp)
 80492c9:	89 04 24             	mov    %eax,(%esp)
 80492cc:	e8 1f f6 ff ff       	call   80488f0 <strcasecmp@plt>
 80492d1:	85 c0                	test   %eax,%eax
 80492d3:	74 50                	je     8049325 <initialize_bomb+0xcf>
 80492d5:	83 c3 01             	add    $0x1,%ebx
 80492d8:	8b 04 9d e0 d5 04 08 	mov    0x804d5e0(,%ebx,4),%eax
 80492df:	85 c0                	test   %eax,%eax
 80492e1:	75 e2                	jne    80492c5 <initialize_bomb+0x6f>
 80492e3:	eb 28                	jmp    804930d <initialize_bomb+0xb7>
 80492e5:	8d 44 24 5c          	lea    0x5c(%esp),%eax
 80492e9:	89 44 24 08          	mov    %eax,0x8(%esp)
 80492ed:	c7 44 24 04 0a a7 04 	movl   $0x804a70a,0x4(%esp)
 80492f4:	08 
 80492f5:	c7 04 24 01 00 00 00 	movl   $0x1,(%esp)
 80492fc:	e8 2f f6 ff ff       	call   8048930 <__printf_chk@plt>
 8049301:	c7 04 24 08 00 00 00 	movl   $0x8,(%esp)
 8049308:	e8 b3 f5 ff ff       	call   80488c0 <exit@plt>
 804930d:	c7 04 24 fc a5 04 08 	movl   $0x804a5fc,(%esp)
 8049314:	e8 67 f5 ff ff       	call   8048880 <puts@plt>
 8049319:	c7 04 24 08 00 00 00 	movl   $0x8,(%esp)
 8049320:	e8 9b f5 ff ff       	call   80488c0 <exit@plt>
 8049325:	8d 44 24 5c          	lea    0x5c(%esp),%eax
 8049329:	89 04 24             	mov    %eax,(%esp)
 804932c:	e8 0d 0d 00 00       	call   804a03e <init_driver>
 8049331:	85 c0                	test   %eax,%eax
 8049333:	78 b0                	js     80492e5 <initialize_bomb+0x8f>
 8049335:	8b 84 24 5c 20 00 00 	mov    0x205c(%esp),%eax
 804933c:	65 33 05 14 00 00 00 	xor    %gs:0x14,%eax
 8049343:	74 05                	je     804934a <initialize_bomb+0xf4>
 8049345:	e8 e6 f4 ff ff       	call   8048830 <__stack_chk_fail@plt>
 804934a:	81 c4 64 20 00 00    	add    $0x2064,%esp
 8049350:	5b                   	pop    %ebx
 8049351:	5e                   	pop    %esi
 8049352:	c3                   	ret    

08049353 <initialize_bomb_solve>:
 8049353:	f3 c3                	repz ret 

08049355 <blank_line>:
 8049355:	56                   	push   %esi
 8049356:	53                   	push   %ebx
 8049357:	83 ec 04             	sub    $0x4,%esp
 804935a:	8b 5c 24 10          	mov    0x10(%esp),%ebx
 804935e:	eb 16                	jmp    8049376 <blank_line+0x21>
 8049360:	e8 3b f6 ff ff       	call   80489a0 <__ctype_b_loc@plt>
 8049365:	83 c3 01             	add    $0x1,%ebx
 8049368:	89 f2                	mov    %esi,%edx
 804936a:	0f be f2             	movsbl %dl,%esi
 804936d:	8b 00                	mov    (%eax),%eax
 804936f:	f6 44 70 01 20       	testb  $0x20,0x1(%eax,%esi,2)
 8049374:	74 10                	je     8049386 <blank_line+0x31>
 8049376:	0f b6 33             	movzbl (%ebx),%esi
 8049379:	89 f0                	mov    %esi,%eax
 804937b:	84 c0                	test   %al,%al
 804937d:	75 e1                	jne    8049360 <blank_line+0xb>
 804937f:	b8 01 00 00 00       	mov    $0x1,%eax
 8049384:	eb 05                	jmp    804938b <blank_line+0x36>
 8049386:	b8 00 00 00 00       	mov    $0x0,%eax
 804938b:	83 c4 04             	add    $0x4,%esp
 804938e:	5b                   	pop    %ebx
 804938f:	5e                   	pop    %esi
 8049390:	c3                   	ret    

08049391 <skip>:
 8049391:	53                   	push   %ebx
 8049392:	83 ec 18             	sub    $0x18,%esp
 8049395:	a1 0c d8 04 08       	mov    0x804d80c,%eax
 804939a:	89 44 24 08          	mov    %eax,0x8(%esp)
 804939e:	c7 44 24 04 50 00 00 	movl   $0x50,0x4(%esp)
 80493a5:	00 
 80493a6:	a1 08 d8 04 08       	mov    0x804d808,%eax
 80493ab:	8d 04 80             	lea    (%eax,%eax,4),%eax
 80493ae:	c1 e0 04             	shl    $0x4,%eax
 80493b1:	05 20 d8 04 08       	add    $0x804d820,%eax
 80493b6:	89 04 24             	mov    %eax,(%esp)
 80493b9:	e8 32 f4 ff ff       	call   80487f0 <fgets@plt>
 80493be:	89 c3                	mov    %eax,%ebx
 80493c0:	85 c0                	test   %eax,%eax
 80493c2:	74 0c                	je     80493d0 <skip+0x3f>
 80493c4:	89 04 24             	mov    %eax,(%esp)
 80493c7:	e8 89 ff ff ff       	call   8049355 <blank_line>
 80493cc:	85 c0                	test   %eax,%eax
 80493ce:	75 c5                	jne    8049395 <skip+0x4>
 80493d0:	89 d8                	mov    %ebx,%eax
 80493d2:	83 c4 18             	add    $0x18,%esp
 80493d5:	5b                   	pop    %ebx
 80493d6:	c3                   	ret    

080493d7 <send_msg>:
 80493d7:	57                   	push   %edi
 80493d8:	53                   	push   %ebx
 80493d9:	81 ec 34 40 00 00    	sub    $0x4034,%esp
 80493df:	65 a1 14 00 00 00    	mov    %gs:0x14,%eax
 80493e5:	89 84 24 2c 40 00 00 	mov    %eax,0x402c(%esp)
 80493ec:	31 c0                	xor    %eax,%eax
 80493ee:	8b 15 08 d8 04 08    	mov    0x804d808,%edx
 80493f4:	8d 5c 92 fb          	lea    -0x5(%edx,%edx,4),%ebx
 80493f8:	c1 e3 04             	shl    $0x4,%ebx
 80493fb:	81 c3 20 d8 04 08    	add    $0x804d820,%ebx
 8049401:	89 df                	mov    %ebx,%edi
 8049403:	b9 ff ff ff ff       	mov    $0xffffffff,%ecx
 8049408:	f2 ae                	repnz scas %es:(%edi),%al
 804940a:	f7 d1                	not    %ecx
 804940c:	83 c1 63             	add    $0x63,%ecx
 804940f:	81 f9 00 20 00 00    	cmp    $0x2000,%ecx
 8049415:	76 20                	jbe    8049437 <send_msg+0x60>
 8049417:	c7 44 24 04 34 a6 04 	movl   $0x804a634,0x4(%esp)
 804941e:	08 
 804941f:	c7 04 24 01 00 00 00 	movl   $0x1,(%esp)
 8049426:	e8 05 f5 ff ff       	call   8048930 <__printf_chk@plt>
 804942b:	c7 04 24 08 00 00 00 	movl   $0x8,(%esp)
 8049432:	e8 89 f4 ff ff       	call   80488c0 <exit@plt>
 8049437:	83 bc 24 40 40 00 00 	cmpl   $0x0,0x4040(%esp)
 804943e:	00 
 804943f:	b8 24 a7 04 08       	mov    $0x804a724,%eax
 8049444:	b9 2c a7 04 08       	mov    $0x804a72c,%ecx
 8049449:	0f 44 c1             	cmove  %ecx,%eax
 804944c:	89 5c 24 1c          	mov    %ebx,0x1c(%esp)
 8049450:	89 54 24 18          	mov    %edx,0x18(%esp)
 8049454:	89 44 24 14          	mov    %eax,0x14(%esp)
 8049458:	a1 c0 d5 04 08       	mov    0x804d5c0,%eax
 804945d:	89 44 24 10          	mov    %eax,0x10(%esp)
 8049461:	c7 44 24 0c 35 a7 04 	movl   $0x804a735,0xc(%esp)
 8049468:	08 
 8049469:	c7 44 24 08 00 20 00 	movl   $0x2000,0x8(%esp)
 8049470:	00 
 8049471:	c7 44 24 04 01 00 00 	movl   $0x1,0x4(%esp)
 8049478:	00 
 8049479:	8d 5c 24 2c          	lea    0x2c(%esp),%ebx
 804947d:	89 1c 24             	mov    %ebx,(%esp)
 8049480:	e8 2b f5 ff ff       	call   80489b0 <__sprintf_chk@plt>
 8049485:	8d 84 24 2c 20 00 00 	lea    0x202c(%esp),%eax
 804948c:	89 44 24 0c          	mov    %eax,0xc(%esp)
 8049490:	c7 44 24 08 00 00 00 	movl   $0x0,0x8(%esp)
 8049497:	00 
 8049498:	89 5c 24 04          	mov    %ebx,0x4(%esp)
 804949c:	c7 04 24 c0 d1 04 08 	movl   $0x804d1c0,(%esp)
 80494a3:	e8 a4 0d 00 00       	call   804a24c <driver_post>
 80494a8:	85 c0                	test   %eax,%eax
 80494aa:	79 1b                	jns    80494c7 <send_msg+0xf0>
 80494ac:	8d 84 24 2c 20 00 00 	lea    0x202c(%esp),%eax
 80494b3:	89 04 24             	mov    %eax,(%esp)
 80494b6:	e8 c5 f3 ff ff       	call   8048880 <puts@plt>
 80494bb:	c7 04 24 00 00 00 00 	movl   $0x0,(%esp)
 80494c2:	e8 f9 f3 ff ff       	call   80488c0 <exit@plt>
 80494c7:	8b 84 24 2c 40 00 00 	mov    0x402c(%esp),%eax
 80494ce:	65 33 05 14 00 00 00 	xor    %gs:0x14,%eax
 80494d5:	74 05                	je     80494dc <send_msg+0x105>
 80494d7:	e8 54 f3 ff ff       	call   8048830 <__stack_chk_fail@plt>
 80494dc:	81 c4 34 40 00 00    	add    $0x4034,%esp
 80494e2:	5b                   	pop    %ebx
 80494e3:	5f                   	pop    %edi
 80494e4:	c3                   	ret    

080494e5 <explode_bomb>:
 80494e5:	83 ec 1c             	sub    $0x1c,%esp
 80494e8:	c7 04 24 41 a7 04 08 	movl   $0x804a741,(%esp)
 80494ef:	e8 8c f3 ff ff       	call   8048880 <puts@plt>
 80494f4:	c7 04 24 4a a7 04 08 	movl   $0x804a74a,(%esp)
 80494fb:	e8 80 f3 ff ff       	call   8048880 <puts@plt>
 8049500:	c7 04 24 00 00 00 00 	movl   $0x0,(%esp)
 8049507:	e8 cb fe ff ff       	call   80493d7 <send_msg>
 804950c:	c7 04 24 58 a6 04 08 	movl   $0x804a658,(%esp)
 8049513:	e8 68 f3 ff ff       	call   8048880 <puts@plt>
 8049518:	c7 04 24 08 00 00 00 	movl   $0x8,(%esp)
 804951f:	e8 9c f3 ff ff       	call   80488c0 <exit@plt>

08049524 <read_six_numbers>:
 8049524:	83 ec 2c             	sub    $0x2c,%esp
 8049527:	8b 44 24 34          	mov    0x34(%esp),%eax
 804952b:	8d 50 14             	lea    0x14(%eax),%edx
 804952e:	89 54 24 1c          	mov    %edx,0x1c(%esp)
 8049532:	8d 50 10             	lea    0x10(%eax),%edx
 8049535:	89 54 24 18          	mov    %edx,0x18(%esp)
 8049539:	8d 50 0c             	lea    0xc(%eax),%edx
 804953c:	89 54 24 14          	mov    %edx,0x14(%esp)
 8049540:	8d 50 08             	lea    0x8(%eax),%edx
 8049543:	89 54 24 10          	mov    %edx,0x10(%esp)
 8049547:	8d 50 04             	lea    0x4(%eax),%edx
 804954a:	89 54 24 0c          	mov    %edx,0xc(%esp)
 804954e:	89 44 24 08          	mov    %eax,0x8(%esp)
 8049552:	c7 44 24 04 61 a7 04 	movl   $0x804a761,0x4(%esp)
 8049559:	08 
 804955a:	8b 44 24 30          	mov    0x30(%esp),%eax
 804955e:	89 04 24             	mov    %eax,(%esp)
 8049561:	e8 9a f3 ff ff       	call   8048900 <__isoc99_sscanf@plt>
 8049566:	83 f8 05             	cmp    $0x5,%eax
 8049569:	7f 05                	jg     8049570 <read_six_numbers+0x4c>
 804956b:	e8 75 ff ff ff       	call   80494e5 <explode_bomb>
 8049570:	83 c4 2c             	add    $0x2c,%esp
 8049573:	c3                   	ret    

08049574 <read_line>:
 8049574:	57                   	push   %edi
 8049575:	56                   	push   %esi
 8049576:	53                   	push   %ebx
 8049577:	83 ec 10             	sub    $0x10,%esp
 804957a:	e8 12 fe ff ff       	call   8049391 <skip>
 804957f:	85 c0                	test   %eax,%eax
 8049581:	75 6c                	jne    80495ef <read_line+0x7b>
 8049583:	a1 e4 d7 04 08       	mov    0x804d7e4,%eax
 8049588:	39 05 0c d8 04 08    	cmp    %eax,0x804d80c
 804958e:	75 18                	jne    80495a8 <read_line+0x34>
 8049590:	c7 04 24 73 a7 04 08 	movl   $0x804a773,(%esp)
 8049597:	e8 e4 f2 ff ff       	call   8048880 <puts@plt>
 804959c:	c7 04 24 08 00 00 00 	movl   $0x8,(%esp)
 80495a3:	e8 18 f3 ff ff       	call   80488c0 <exit@plt>
 80495a8:	c7 04 24 91 a7 04 08 	movl   $0x804a791,(%esp)
 80495af:	e8 ac f2 ff ff       	call   8048860 <getenv@plt>
 80495b4:	85 c0                	test   %eax,%eax
 80495b6:	74 0c                	je     80495c4 <read_line+0x50>
 80495b8:	c7 04 24 00 00 00 00 	movl   $0x0,(%esp)
 80495bf:	e8 fc f2 ff ff       	call   80488c0 <exit@plt>
 80495c4:	a1 e4 d7 04 08       	mov    0x804d7e4,%eax
 80495c9:	a3 0c d8 04 08       	mov    %eax,0x804d80c
 80495ce:	e8 be fd ff ff       	call   8049391 <skip>
 80495d3:	85 c0                	test   %eax,%eax
 80495d5:	75 18                	jne    80495ef <read_line+0x7b>
 80495d7:	c7 04 24 73 a7 04 08 	movl   $0x804a773,(%esp)
 80495de:	e8 9d f2 ff ff       	call   8048880 <puts@plt>
 80495e3:	c7 04 24 00 00 00 00 	movl   $0x0,(%esp)
 80495ea:	e8 d1 f2 ff ff       	call   80488c0 <exit@plt>
 80495ef:	8b 15 08 d8 04 08    	mov    0x804d808,%edx
 80495f5:	8d 1c 92             	lea    (%edx,%edx,4),%ebx
 80495f8:	c1 e3 04             	shl    $0x4,%ebx
 80495fb:	81 c3 20 d8 04 08    	add    $0x804d820,%ebx
 8049601:	89 df                	mov    %ebx,%edi
 8049603:	b8 00 00 00 00       	mov    $0x0,%eax
 8049608:	b9 ff ff ff ff       	mov    $0xffffffff,%ecx
 804960d:	f2 ae                	repnz scas %es:(%edi),%al
 804960f:	f7 d1                	not    %ecx
 8049611:	83 e9 01             	sub    $0x1,%ecx
 8049614:	83 f9 4e             	cmp    $0x4e,%ecx
 8049617:	7e 35                	jle    804964e <read_line+0xda>
 8049619:	c7 04 24 9c a7 04 08 	movl   $0x804a79c,(%esp)
 8049620:	e8 5b f2 ff ff       	call   8048880 <puts@plt>
 8049625:	a1 08 d8 04 08       	mov    0x804d808,%eax
 804962a:	8d 50 01             	lea    0x1(%eax),%edx
 804962d:	89 15 08 d8 04 08    	mov    %edx,0x804d808
 8049633:	6b c0 50             	imul   $0x50,%eax,%eax
 8049636:	05 20 d8 04 08       	add    $0x804d820,%eax
 804963b:	be b7 a7 04 08       	mov    $0x804a7b7,%esi
 8049640:	b9 04 00 00 00       	mov    $0x4,%ecx
 8049645:	89 c7                	mov    %eax,%edi
 8049647:	f3 a5                	rep movsl %ds:(%esi),%es:(%edi)
 8049649:	e8 97 fe ff ff       	call   80494e5 <explode_bomb>
 804964e:	8d 04 92             	lea    (%edx,%edx,4),%eax
 8049651:	c1 e0 04             	shl    $0x4,%eax
 8049654:	c6 84 01 1f d8 04 08 	movb   $0x0,0x804d81f(%ecx,%eax,1)
 804965b:	00 
 804965c:	83 c2 01             	add    $0x1,%edx
 804965f:	89 15 08 d8 04 08    	mov    %edx,0x804d808
 8049665:	89 d8                	mov    %ebx,%eax
 8049667:	83 c4 10             	add    $0x10,%esp
 804966a:	5b                   	pop    %ebx
 804966b:	5e                   	pop    %esi
 804966c:	5f                   	pop    %edi
 804966d:	c3                   	ret    

0804966e <phase_defused>:
 804966e:	83 ec 1c             	sub    $0x1c,%esp
 8049671:	c7 04 24 01 00 00 00 	movl   $0x1,(%esp)
 8049678:	e8 5a fd ff ff       	call   80493d7 <send_msg>
 804967d:	83 3d 08 d8 04 08 09 	cmpl   $0x9,0x804d808
 8049684:	75 18                	jne    804969e <phase_defused+0x30>
 8049686:	c7 04 24 7c a6 04 08 	movl   $0x804a67c,(%esp)
 804968d:	e8 ee f1 ff ff       	call   8048880 <puts@plt>
 8049692:	c7 04 24 a8 a6 04 08 	movl   $0x804a6a8,(%esp)
 8049699:	e8 e2 f1 ff ff       	call   8048880 <puts@plt>
 804969e:	83 c4 1c             	add    $0x1c,%esp
 80496a1:	c3                   	ret    
 80496a2:	66 90                	xchg   %ax,%ax
 80496a4:	66 90                	xchg   %ax,%ax
 80496a6:	66 90                	xchg   %ax,%ax
 80496a8:	66 90                	xchg   %ax,%ax
 80496aa:	66 90                	xchg   %ax,%ax
 80496ac:	66 90                	xchg   %ax,%ax
 80496ae:	66 90                	xchg   %ax,%ax

080496b0 <sigalrm_handler>:
 80496b0:	83 ec 1c             	sub    $0x1c,%esp
 80496b3:	c7 44 24 0c 00 00 00 	movl   $0x0,0xc(%esp)
 80496ba:	00 
 80496bb:	c7 44 24 08 5c ab 04 	movl   $0x804ab5c,0x8(%esp)
 80496c2:	08 
 80496c3:	c7 44 24 04 01 00 00 	movl   $0x1,0x4(%esp)
 80496ca:	00 
 80496cb:	a1 e0 d7 04 08       	mov    0x804d7e0,%eax
 80496d0:	89 04 24             	mov    %eax,(%esp)
 80496d3:	e8 78 f2 ff ff       	call   8048950 <__fprintf_chk@plt>
 80496d8:	c7 04 24 01 00 00 00 	movl   $0x1,(%esp)
 80496df:	e8 dc f1 ff ff       	call   80488c0 <exit@plt>

080496e4 <rio_readlineb>:
 80496e4:	55                   	push   %ebp
 80496e5:	57                   	push   %edi
 80496e6:	56                   	push   %esi
 80496e7:	53                   	push   %ebx
 80496e8:	83 ec 3c             	sub    $0x3c,%esp
 80496eb:	89 d5                	mov    %edx,%ebp
 80496ed:	83 f9 01             	cmp    $0x1,%ecx
 80496f0:	0f 86 d0 00 00 00    	jbe    80497c6 <rio_readlineb+0xe2>
 80496f6:	89 c3                	mov    %eax,%ebx
 80496f8:	89 4c 24 1c          	mov    %ecx,0x1c(%esp)
 80496fc:	c7 44 24 10 01 00 00 	movl   $0x1,0x10(%esp)
 8049703:	00 
 8049704:	8d 78 0c             	lea    0xc(%eax),%edi
 8049707:	eb 33                	jmp    804973c <rio_readlineb+0x58>
 8049709:	c7 44 24 08 00 20 00 	movl   $0x2000,0x8(%esp)
 8049710:	00 
 8049711:	89 7c 24 04          	mov    %edi,0x4(%esp)
 8049715:	8b 03                	mov    (%ebx),%eax
 8049717:	89 04 24             	mov    %eax,(%esp)
 804971a:	e8 b1 f0 ff ff       	call   80487d0 <read@plt>
 804971f:	89 43 04             	mov    %eax,0x4(%ebx)
 8049722:	85 c0                	test   %eax,%eax
 8049724:	79 0f                	jns    8049735 <rio_readlineb+0x51>
 8049726:	e8 f5 f1 ff ff       	call   8048920 <__errno_location@plt>
 804972b:	83 38 04             	cmpl   $0x4,(%eax)
 804972e:	74 0c                	je     804973c <rio_readlineb+0x58>
 8049730:	e9 a3 00 00 00       	jmp    80497d8 <rio_readlineb+0xf4>
 8049735:	85 c0                	test   %eax,%eax
 8049737:	74 6e                	je     80497a7 <rio_readlineb+0xc3>
 8049739:	89 7b 08             	mov    %edi,0x8(%ebx)
 804973c:	8b 73 04             	mov    0x4(%ebx),%esi
 804973f:	85 f6                	test   %esi,%esi
 8049741:	7e c6                	jle    8049709 <rio_readlineb+0x25>
 8049743:	85 f6                	test   %esi,%esi
 8049745:	0f 95 c0             	setne  %al
 8049748:	0f b6 c0             	movzbl %al,%eax
 804974b:	89 44 24 14          	mov    %eax,0x14(%esp)
 804974f:	8b 4b 08             	mov    0x8(%ebx),%ecx
 8049752:	c7 44 24 0c 01 00 00 	movl   $0x1,0xc(%esp)
 8049759:	00 
 804975a:	89 44 24 08          	mov    %eax,0x8(%esp)
 804975e:	89 4c 24 18          	mov    %ecx,0x18(%esp)
 8049762:	89 4c 24 04          	mov    %ecx,0x4(%esp)
 8049766:	8d 54 24 2f          	lea    0x2f(%esp),%edx
 804976a:	89 14 24             	mov    %edx,(%esp)
 804976d:	e8 2e f1 ff ff       	call   80488a0 <__memcpy_chk@plt>
 8049772:	8b 4c 24 18          	mov    0x18(%esp),%ecx
 8049776:	8b 54 24 14          	mov    0x14(%esp),%edx
 804977a:	01 d1                	add    %edx,%ecx
 804977c:	89 4b 08             	mov    %ecx,0x8(%ebx)
 804977f:	29 d6                	sub    %edx,%esi
 8049781:	89 73 04             	mov    %esi,0x4(%ebx)
 8049784:	83 fa 01             	cmp    $0x1,%edx
 8049787:	75 11                	jne    804979a <rio_readlineb+0xb6>
 8049789:	83 c5 01             	add    $0x1,%ebp
 804978c:	0f b6 44 24 2f       	movzbl 0x2f(%esp),%eax
 8049791:	88 45 ff             	mov    %al,-0x1(%ebp)
 8049794:	3c 0a                	cmp    $0xa,%al
 8049796:	75 1a                	jne    80497b2 <rio_readlineb+0xce>
 8049798:	eb 34                	jmp    80497ce <rio_readlineb+0xea>
 804979a:	83 7c 24 14 00       	cmpl   $0x0,0x14(%esp)
 804979f:	75 3e                	jne    80497df <rio_readlineb+0xfb>
 80497a1:	8b 44 24 10          	mov    0x10(%esp),%eax
 80497a5:	eb 04                	jmp    80497ab <rio_readlineb+0xc7>
 80497a7:	8b 44 24 10          	mov    0x10(%esp),%eax
 80497ab:	83 f8 01             	cmp    $0x1,%eax
 80497ae:	75 1e                	jne    80497ce <rio_readlineb+0xea>
 80497b0:	eb 34                	jmp    80497e6 <rio_readlineb+0x102>
 80497b2:	83 44 24 10 01       	addl   $0x1,0x10(%esp)
 80497b7:	8b 44 24 1c          	mov    0x1c(%esp),%eax
 80497bb:	39 44 24 10          	cmp    %eax,0x10(%esp)
 80497bf:	74 0d                	je     80497ce <rio_readlineb+0xea>
 80497c1:	e9 76 ff ff ff       	jmp    804973c <rio_readlineb+0x58>
 80497c6:	c7 44 24 10 01 00 00 	movl   $0x1,0x10(%esp)
 80497cd:	00 
 80497ce:	c6 45 00 00          	movb   $0x0,0x0(%ebp)
 80497d2:	8b 44 24 10          	mov    0x10(%esp),%eax
 80497d6:	eb 13                	jmp    80497eb <rio_readlineb+0x107>
 80497d8:	b8 ff ff ff ff       	mov    $0xffffffff,%eax
 80497dd:	eb 0c                	jmp    80497eb <rio_readlineb+0x107>
 80497df:	b8 ff ff ff ff       	mov    $0xffffffff,%eax
 80497e4:	eb 05                	jmp    80497eb <rio_readlineb+0x107>
 80497e6:	b8 00 00 00 00       	mov    $0x0,%eax
 80497eb:	83 c4 3c             	add    $0x3c,%esp
 80497ee:	5b                   	pop    %ebx
 80497ef:	5e                   	pop    %esi
 80497f0:	5f                   	pop    %edi
 80497f1:	5d                   	pop    %ebp
 80497f2:	c3                   	ret    

080497f3 <submitr>:
 80497f3:	55                   	push   %ebp
 80497f4:	57                   	push   %edi
 80497f5:	56                   	push   %esi
 80497f6:	53                   	push   %ebx
 80497f7:	81 ec 7c a0 00 00    	sub    $0xa07c,%esp
 80497fd:	8b b4 24 90 a0 00 00 	mov    0xa090(%esp),%esi
 8049804:	8b 84 24 98 a0 00 00 	mov    0xa098(%esp),%eax
 804980b:	89 44 24 28          	mov    %eax,0x28(%esp)
 804980f:	8b 84 24 9c a0 00 00 	mov    0xa09c(%esp),%eax
 8049816:	89 44 24 2c          	mov    %eax,0x2c(%esp)
 804981a:	8b 84 24 a0 a0 00 00 	mov    0xa0a0(%esp),%eax
 8049821:	89 44 24 30          	mov    %eax,0x30(%esp)
 8049825:	8b 9c 24 a4 a0 00 00 	mov    0xa0a4(%esp),%ebx
 804982c:	8b 84 24 a8 a0 00 00 	mov    0xa0a8(%esp),%eax
 8049833:	89 44 24 34          	mov    %eax,0x34(%esp)
 8049837:	65 a1 14 00 00 00    	mov    %gs:0x14,%eax
 804983d:	89 84 24 6c a0 00 00 	mov    %eax,0xa06c(%esp)
 8049844:	31 c0                	xor    %eax,%eax
 8049846:	c7 44 24 4c 00 00 00 	movl   $0x0,0x4c(%esp)
 804984d:	00 
 804984e:	c7 44 24 08 00 00 00 	movl   $0x0,0x8(%esp)
 8049855:	00 
 8049856:	c7 44 24 04 01 00 00 	movl   $0x1,0x4(%esp)
 804985d:	00 
 804985e:	c7 04 24 02 00 00 00 	movl   $0x2,(%esp)
 8049865:	e8 d6 f0 ff ff       	call   8048940 <socket@plt>
 804986a:	89 c5                	mov    %eax,%ebp
 804986c:	85 c0                	test   %eax,%eax
 804986e:	79 52                	jns    80498c2 <submitr+0xcf>
 8049870:	8b 44 24 34          	mov    0x34(%esp),%eax
 8049874:	c7 00 45 72 72 6f    	movl   $0x6f727245,(%eax)
 804987a:	c7 40 04 72 3a 20 43 	movl   $0x43203a72,0x4(%eax)
 8049881:	c7 40 08 6c 69 65 6e 	movl   $0x6e65696c,0x8(%eax)
 8049888:	c7 40 0c 74 20 75 6e 	movl   $0x6e752074,0xc(%eax)
 804988f:	c7 40 10 61 62 6c 65 	movl   $0x656c6261,0x10(%eax)
 8049896:	c7 40 14 20 74 6f 20 	movl   $0x206f7420,0x14(%eax)
 804989d:	c7 40 18 63 72 65 61 	movl   $0x61657263,0x18(%eax)
 80498a4:	c7 40 1c 74 65 20 73 	movl   $0x73206574,0x1c(%eax)
 80498ab:	c7 40 20 6f 63 6b 65 	movl   $0x656b636f,0x20(%eax)
 80498b2:	66 c7 40 24 74 00    	movw   $0x74,0x24(%eax)
 80498b8:	b8 ff ff ff ff       	mov    $0xffffffff,%eax
 80498bd:	e9 37 06 00 00       	jmp    8049ef9 <submitr+0x706>
 80498c2:	89 34 24             	mov    %esi,(%esp)
 80498c5:	e8 96 f0 ff ff       	call   8048960 <gethostbyname@plt>
 80498ca:	85 c0                	test   %eax,%eax
 80498cc:	75 6c                	jne    804993a <submitr+0x147>
 80498ce:	8b 44 24 34          	mov    0x34(%esp),%eax
 80498d2:	c7 00 45 72 72 6f    	movl   $0x6f727245,(%eax)
 80498d8:	c7 40 04 72 3a 20 44 	movl   $0x44203a72,0x4(%eax)
 80498df:	c7 40 08 4e 53 20 69 	movl   $0x6920534e,0x8(%eax)
 80498e6:	c7 40 0c 73 20 75 6e 	movl   $0x6e752073,0xc(%eax)
 80498ed:	c7 40 10 61 62 6c 65 	movl   $0x656c6261,0x10(%eax)
 80498f4:	c7 40 14 20 74 6f 20 	movl   $0x206f7420,0x14(%eax)
 80498fb:	c7 40 18 72 65 73 6f 	movl   $0x6f736572,0x18(%eax)
 8049902:	c7 40 1c 6c 76 65 20 	movl   $0x2065766c,0x1c(%eax)
 8049909:	c7 40 20 73 65 72 76 	movl   $0x76726573,0x20(%eax)
 8049910:	c7 40 24 65 72 20 61 	movl   $0x61207265,0x24(%eax)
 8049917:	c7 40 28 64 64 72 65 	movl   $0x65726464,0x28(%eax)
 804991e:	66 c7 40 2c 73 73    	movw   $0x7373,0x2c(%eax)
 8049924:	c6 40 2e 00          	movb   $0x0,0x2e(%eax)
 8049928:	89 2c 24             	mov    %ebp,(%esp)
 804992b:	e8 60 f0 ff ff       	call   8048990 <close@plt>
 8049930:	b8 ff ff ff ff       	mov    $0xffffffff,%eax
 8049935:	e9 bf 05 00 00       	jmp    8049ef9 <submitr+0x706>
 804993a:	8d 74 24 50          	lea    0x50(%esp),%esi
 804993e:	c7 44 24 50 00 00 00 	movl   $0x0,0x50(%esp)
 8049945:	00 
 8049946:	c7 44 24 54 00 00 00 	movl   $0x0,0x54(%esp)
 804994d:	00 
 804994e:	c7 44 24 58 00 00 00 	movl   $0x0,0x58(%esp)
 8049955:	00 
 8049956:	c7 44 24 5c 00 00 00 	movl   $0x0,0x5c(%esp)
 804995d:	00 
 804995e:	66 c7 44 24 50 02 00 	movw   $0x2,0x50(%esp)
 8049965:	c7 44 24 0c 0c 00 00 	movl   $0xc,0xc(%esp)
 804996c:	00 
 804996d:	8b 50 0c             	mov    0xc(%eax),%edx
 8049970:	89 54 24 08          	mov    %edx,0x8(%esp)
 8049974:	8b 40 10             	mov    0x10(%eax),%eax
 8049977:	8b 00                	mov    (%eax),%eax
 8049979:	89 44 24 04          	mov    %eax,0x4(%esp)
 804997d:	8d 44 24 54          	lea    0x54(%esp),%eax
 8049981:	89 04 24             	mov    %eax,(%esp)
 8049984:	e8 07 ef ff ff       	call   8048890 <__memmove_chk@plt>
 8049989:	0f b7 84 24 94 a0 00 	movzwl 0xa094(%esp),%eax
 8049990:	00 
 8049991:	66 c1 c8 08          	ror    $0x8,%ax
 8049995:	66 89 44 24 52       	mov    %ax,0x52(%esp)
 804999a:	c7 44 24 08 10 00 00 	movl   $0x10,0x8(%esp)
 80499a1:	00 
 80499a2:	89 74 24 04          	mov    %esi,0x4(%esp)
 80499a6:	89 2c 24             	mov    %ebp,(%esp)
 80499a9:	e8 d2 ef ff ff       	call   8048980 <connect@plt>
 80499ae:	85 c0                	test   %eax,%eax
 80499b0:	79 5e                	jns    8049a10 <submitr+0x21d>
 80499b2:	8b 44 24 34          	mov    0x34(%esp),%eax
 80499b6:	c7 00 45 72 72 6f    	movl   $0x6f727245,(%eax)
 80499bc:	c7 40 04 72 3a 20 55 	movl   $0x55203a72,0x4(%eax)
 80499c3:	c7 40 08 6e 61 62 6c 	movl   $0x6c62616e,0x8(%eax)
 80499ca:	c7 40 0c 65 20 74 6f 	movl   $0x6f742065,0xc(%eax)
 80499d1:	c7 40 10 20 63 6f 6e 	movl   $0x6e6f6320,0x10(%eax)
 80499d8:	c7 40 14 6e 65 63 74 	movl   $0x7463656e,0x14(%eax)
 80499df:	c7 40 18 20 74 6f 20 	movl   $0x206f7420,0x18(%eax)
 80499e6:	c7 40 1c 74 68 65 20 	movl   $0x20656874,0x1c(%eax)
 80499ed:	c7 40 20 73 65 72 76 	movl   $0x76726573,0x20(%eax)
 80499f4:	66 c7 40 24 65 72    	movw   $0x7265,0x24(%eax)
 80499fa:	c6 40 26 00          	movb   $0x0,0x26(%eax)
 80499fe:	89 2c 24             	mov    %ebp,(%esp)
 8049a01:	e8 8a ef ff ff       	call   8048990 <close@plt>
 8049a06:	b8 ff ff ff ff       	mov    $0xffffffff,%eax
 8049a0b:	e9 e9 04 00 00       	jmp    8049ef9 <submitr+0x706>
 8049a10:	ba ff ff ff ff       	mov    $0xffffffff,%edx
 8049a15:	89 df                	mov    %ebx,%edi
 8049a17:	b8 00 00 00 00       	mov    $0x0,%eax
 8049a1c:	89 d1                	mov    %edx,%ecx
 8049a1e:	f2 ae                	repnz scas %es:(%edi),%al
 8049a20:	f7 d1                	not    %ecx
 8049a22:	89 ce                	mov    %ecx,%esi
 8049a24:	8b 7c 24 28          	mov    0x28(%esp),%edi
 8049a28:	89 d1                	mov    %edx,%ecx
 8049a2a:	f2 ae                	repnz scas %es:(%edi),%al
 8049a2c:	89 4c 24 38          	mov    %ecx,0x38(%esp)
 8049a30:	8b 7c 24 2c          	mov    0x2c(%esp),%edi
 8049a34:	89 d1                	mov    %edx,%ecx
 8049a36:	f2 ae                	repnz scas %es:(%edi),%al
 8049a38:	f7 d1                	not    %ecx
 8049a3a:	89 4c 24 3c          	mov    %ecx,0x3c(%esp)
 8049a3e:	8b 7c 24 30          	mov    0x30(%esp),%edi
 8049a42:	89 d1                	mov    %edx,%ecx
 8049a44:	f2 ae                	repnz scas %es:(%edi),%al
 8049a46:	8b 44 24 3c          	mov    0x3c(%esp),%eax
 8049a4a:	2b 44 24 38          	sub    0x38(%esp),%eax
 8049a4e:	29 c8                	sub    %ecx,%eax
 8049a50:	89 c2                	mov    %eax,%edx
 8049a52:	8d 44 76 fd          	lea    -0x3(%esi,%esi,2),%eax
 8049a56:	8d 44 02 7b          	lea    0x7b(%edx,%eax,1),%eax
 8049a5a:	3d 00 20 00 00       	cmp    $0x2000,%eax
 8049a5f:	76 77                	jbe    8049ad8 <submitr+0x2e5>
 8049a61:	8b 44 24 34          	mov    0x34(%esp),%eax
 8049a65:	c7 00 45 72 72 6f    	movl   $0x6f727245,(%eax)
 8049a6b:	c7 40 04 72 3a 20 52 	movl   $0x52203a72,0x4(%eax)
 8049a72:	c7 40 08 65 73 75 6c 	movl   $0x6c757365,0x8(%eax)
 8049a79:	c7 40 0c 74 20 73 74 	movl   $0x74732074,0xc(%eax)
 8049a80:	c7 40 10 72 69 6e 67 	movl   $0x676e6972,0x10(%eax)
 8049a87:	c7 40 14 20 74 6f 6f 	movl   $0x6f6f7420,0x14(%eax)
 8049a8e:	c7 40 18 20 6c 61 72 	movl   $0x72616c20,0x18(%eax)
 8049a95:	c7 40 1c 67 65 2e 20 	movl   $0x202e6567,0x1c(%eax)
 8049a9c:	c7 40 20 49 6e 63 72 	movl   $0x72636e49,0x20(%eax)
 8049aa3:	c7 40 24 65 61 73 65 	movl   $0x65736165,0x24(%eax)
 8049aaa:	c7 40 28 20 53 55 42 	movl   $0x42555320,0x28(%eax)
 8049ab1:	c7 40 2c 4d 49 54 52 	movl   $0x5254494d,0x2c(%eax)
 8049ab8:	c7 40 30 5f 4d 41 58 	movl   $0x58414d5f,0x30(%eax)
 8049abf:	c7 40 34 42 55 46 00 	movl   $0x465542,0x34(%eax)
 8049ac6:	89 2c 24             	mov    %ebp,(%esp)
 8049ac9:	e8 c2 ee ff ff       	call   8048990 <close@plt>
 8049ace:	b8 ff ff ff ff       	mov    $0xffffffff,%eax
 8049ad3:	e9 21 04 00 00       	jmp    8049ef9 <submitr+0x706>
 8049ad8:	8d 94 24 60 20 00 00 	lea    0x2060(%esp),%edx
 8049adf:	b9 00 08 00 00       	mov    $0x800,%ecx
 8049ae4:	b8 00 00 00 00       	mov    $0x0,%eax
 8049ae9:	89 d7                	mov    %edx,%edi
 8049aeb:	f3 ab                	rep stos %eax,%es:(%edi)
 8049aed:	89 df                	mov    %ebx,%edi
 8049aef:	b9 ff ff ff ff       	mov    $0xffffffff,%ecx
 8049af4:	f2 ae                	repnz scas %es:(%edi),%al
 8049af6:	f7 d1                	not    %ecx
 8049af8:	83 e9 01             	sub    $0x1,%ecx
 8049afb:	89 ce                	mov    %ecx,%esi
 8049afd:	0f 84 0f 04 00 00    	je     8049f12 <submitr+0x71f>
 8049b03:	89 d7                	mov    %edx,%edi
 8049b05:	0f b6 03             	movzbl (%ebx),%eax
 8049b08:	3c 2a                	cmp    $0x2a,%al
 8049b0a:	74 21                	je     8049b2d <submitr+0x33a>
 8049b0c:	8d 50 d3             	lea    -0x2d(%eax),%edx
 8049b0f:	80 fa 01             	cmp    $0x1,%dl
 8049b12:	76 19                	jbe    8049b2d <submitr+0x33a>
 8049b14:	3c 5f                	cmp    $0x5f,%al
 8049b16:	74 15                	je     8049b2d <submitr+0x33a>
 8049b18:	8d 50 d0             	lea    -0x30(%eax),%edx
 8049b1b:	80 fa 09             	cmp    $0x9,%dl
 8049b1e:	76 0d                	jbe    8049b2d <submitr+0x33a>
 8049b20:	89 c2                	mov    %eax,%edx
 8049b22:	83 e2 df             	and    $0xffffffdf,%edx
 8049b25:	83 ea 41             	sub    $0x41,%edx
 8049b28:	80 fa 19             	cmp    $0x19,%dl
 8049b2b:	77 07                	ja     8049b34 <submitr+0x341>
 8049b2d:	8d 57 01             	lea    0x1(%edi),%edx
 8049b30:	88 07                	mov    %al,(%edi)
 8049b32:	eb 6d                	jmp    8049ba1 <submitr+0x3ae>
 8049b34:	3c 20                	cmp    $0x20,%al
 8049b36:	75 08                	jne    8049b40 <submitr+0x34d>
 8049b38:	8d 57 01             	lea    0x1(%edi),%edx
 8049b3b:	c6 07 2b             	movb   $0x2b,(%edi)
 8049b3e:	eb 61                	jmp    8049ba1 <submitr+0x3ae>
 8049b40:	8d 50 e0             	lea    -0x20(%eax),%edx
 8049b43:	80 fa 5f             	cmp    $0x5f,%dl
 8049b46:	76 08                	jbe    8049b50 <submitr+0x35d>
 8049b48:	3c 09                	cmp    $0x9,%al
 8049b4a:	0f 85 2d 04 00 00    	jne    8049f7d <submitr+0x78a>
 8049b50:	0f b6 c0             	movzbl %al,%eax
 8049b53:	89 44 24 10          	mov    %eax,0x10(%esp)
 8049b57:	c7 44 24 0c 68 ac 04 	movl   $0x804ac68,0xc(%esp)
 8049b5e:	08 
 8049b5f:	c7 44 24 08 08 00 00 	movl   $0x8,0x8(%esp)
 8049b66:	00 
 8049b67:	c7 44 24 04 01 00 00 	movl   $0x1,0x4(%esp)
 8049b6e:	00 
 8049b6f:	8d 84 24 60 80 00 00 	lea    0x8060(%esp),%eax
 8049b76:	89 04 24             	mov    %eax,(%esp)
 8049b79:	e8 32 ee ff ff       	call   80489b0 <__sprintf_chk@plt>
 8049b7e:	0f b6 84 24 60 80 00 	movzbl 0x8060(%esp),%eax
 8049b85:	00 
 8049b86:	88 07                	mov    %al,(%edi)
 8049b88:	0f b6 84 24 61 80 00 	movzbl 0x8061(%esp),%eax
 8049b8f:	00 
 8049b90:	88 47 01             	mov    %al,0x1(%edi)
 8049b93:	8d 57 03             	lea    0x3(%edi),%edx
 8049b96:	0f b6 84 24 62 80 00 	movzbl 0x8062(%esp),%eax
 8049b9d:	00 
 8049b9e:	88 47 02             	mov    %al,0x2(%edi)
 8049ba1:	83 c3 01             	add    $0x1,%ebx
 8049ba4:	83 ee 01             	sub    $0x1,%esi
 8049ba7:	0f 84 65 03 00 00    	je     8049f12 <submitr+0x71f>
 8049bad:	89 d7                	mov    %edx,%edi
 8049baf:	e9 51 ff ff ff       	jmp    8049b05 <submitr+0x312>
 8049bb4:	89 5c 24 08          	mov    %ebx,0x8(%esp)
 8049bb8:	89 74 24 04          	mov    %esi,0x4(%esp)
 8049bbc:	89 2c 24             	mov    %ebp,(%esp)
 8049bbf:	e8 1c ed ff ff       	call   80488e0 <write@plt>
 8049bc4:	85 c0                	test   %eax,%eax
 8049bc6:	7f 0f                	jg     8049bd7 <submitr+0x3e4>
 8049bc8:	e8 53 ed ff ff       	call   8048920 <__errno_location@plt>
 8049bcd:	83 38 04             	cmpl   $0x4,(%eax)
 8049bd0:	75 0f                	jne    8049be1 <submitr+0x3ee>
 8049bd2:	b8 00 00 00 00       	mov    $0x0,%eax
 8049bd7:	01 c6                	add    %eax,%esi
 8049bd9:	29 c3                	sub    %eax,%ebx
 8049bdb:	75 d7                	jne    8049bb4 <submitr+0x3c1>
 8049bdd:	85 ff                	test   %edi,%edi
 8049bdf:	79 62                	jns    8049c43 <submitr+0x450>
 8049be1:	8b 44 24 34          	mov    0x34(%esp),%eax
 8049be5:	c7 00 45 72 72 6f    	movl   $0x6f727245,(%eax)
 8049beb:	c7 40 04 72 3a 20 43 	movl   $0x43203a72,0x4(%eax)
 8049bf2:	c7 40 08 6c 69 65 6e 	movl   $0x6e65696c,0x8(%eax)
 8049bf9:	c7 40 0c 74 20 75 6e 	movl   $0x6e752074,0xc(%eax)
 8049c00:	c7 40 10 61 62 6c 65 	movl   $0x656c6261,0x10(%eax)
 8049c07:	c7 40 14 20 74 6f 20 	movl   $0x206f7420,0x14(%eax)
 8049c0e:	c7 40 18 77 72 69 74 	movl   $0x74697277,0x18(%eax)
 8049c15:	c7 40 1c 65 20 74 6f 	movl   $0x6f742065,0x1c(%eax)
 8049c1c:	c7 40 20 20 74 68 65 	movl   $0x65687420,0x20(%eax)
 8049c23:	c7 40 24 20 73 65 72 	movl   $0x72657320,0x24(%eax)
 8049c2a:	c7 40 28 76 65 72 00 	movl   $0x726576,0x28(%eax)
 8049c31:	89 2c 24             	mov    %ebp,(%esp)
 8049c34:	e8 57 ed ff ff       	call   8048990 <close@plt>
 8049c39:	b8 ff ff ff ff       	mov    $0xffffffff,%eax
 8049c3e:	e9 b6 02 00 00       	jmp    8049ef9 <submitr+0x706>
 8049c43:	89 ac 24 60 80 00 00 	mov    %ebp,0x8060(%esp)
 8049c4a:	c7 84 24 64 80 00 00 	movl   $0x0,0x8064(%esp)
 8049c51:	00 00 00 00 
 8049c55:	8d 84 24 6c 80 00 00 	lea    0x806c(%esp),%eax
 8049c5c:	89 84 24 68 80 00 00 	mov    %eax,0x8068(%esp)
 8049c63:	b9 00 20 00 00       	mov    $0x2000,%ecx
 8049c68:	8d 54 24 60          	lea    0x60(%esp),%edx
 8049c6c:	8d 84 24 60 80 00 00 	lea    0x8060(%esp),%eax
 8049c73:	e8 6c fa ff ff       	call   80496e4 <rio_readlineb>
 8049c78:	85 c0                	test   %eax,%eax
 8049c7a:	7f 76                	jg     8049cf2 <submitr+0x4ff>
 8049c7c:	8b 44 24 34          	mov    0x34(%esp),%eax
 8049c80:	c7 00 45 72 72 6f    	movl   $0x6f727245,(%eax)
 8049c86:	c7 40 04 72 3a 20 43 	movl   $0x43203a72,0x4(%eax)
 8049c8d:	c7 40 08 6c 69 65 6e 	movl   $0x6e65696c,0x8(%eax)
 8049c94:	c7 40 0c 74 20 75 6e 	movl   $0x6e752074,0xc(%eax)
 8049c9b:	c7 40 10 61 62 6c 65 	movl   $0x656c6261,0x10(%eax)
 8049ca2:	c7 40 14 20 74 6f 20 	movl   $0x206f7420,0x14(%eax)
 8049ca9:	c7 40 18 72 65 61 64 	movl   $0x64616572,0x18(%eax)
 8049cb0:	c7 40 1c 20 66 69 72 	movl   $0x72696620,0x1c(%eax)
 8049cb7:	c7 40 20 73 74 20 68 	movl   $0x68207473,0x20(%eax)
 8049cbe:	c7 40 24 65 61 64 65 	movl   $0x65646165,0x24(%eax)
 8049cc5:	c7 40 28 72 20 66 72 	movl   $0x72662072,0x28(%eax)
 8049ccc:	c7 40 2c 6f 6d 20 73 	movl   $0x73206d6f,0x2c(%eax)
 8049cd3:	c7 40 30 65 72 76 65 	movl   $0x65767265,0x30(%eax)
 8049cda:	66 c7 40 34 72 00    	movw   $0x72,0x34(%eax)
 8049ce0:	89 2c 24             	mov    %ebp,(%esp)
 8049ce3:	e8 a8 ec ff ff       	call   8048990 <close@plt>
 8049ce8:	b8 ff ff ff ff       	mov    $0xffffffff,%eax
 8049ced:	e9 07 02 00 00       	jmp    8049ef9 <submitr+0x706>
 8049cf2:	8d 84 24 60 60 00 00 	lea    0x6060(%esp),%eax
 8049cf9:	89 44 24 10          	mov    %eax,0x10(%esp)
 8049cfd:	8d 44 24 4c          	lea    0x4c(%esp),%eax
 8049d01:	89 44 24 0c          	mov    %eax,0xc(%esp)
 8049d05:	8d 84 24 60 40 00 00 	lea    0x4060(%esp),%eax
 8049d0c:	89 44 24 08          	mov    %eax,0x8(%esp)
 8049d10:	c7 44 24 04 6f ac 04 	movl   $0x804ac6f,0x4(%esp)
 8049d17:	08 
 8049d18:	8d 44 24 60          	lea    0x60(%esp),%eax
 8049d1c:	89 04 24             	mov    %eax,(%esp)
 8049d1f:	e8 dc eb ff ff       	call   8048900 <__isoc99_sscanf@plt>
 8049d24:	8b 44 24 4c          	mov    0x4c(%esp),%eax
 8049d28:	3d c8 00 00 00       	cmp    $0xc8,%eax
 8049d2d:	0f 84 cb 00 00 00    	je     8049dfe <submitr+0x60b>
 8049d33:	8d 94 24 60 60 00 00 	lea    0x6060(%esp),%edx
 8049d3a:	89 54 24 14          	mov    %edx,0x14(%esp)
 8049d3e:	89 44 24 10          	mov    %eax,0x10(%esp)
 8049d42:	c7 44 24 0c 80 ab 04 	movl   $0x804ab80,0xc(%esp)
 8049d49:	08 
 8049d4a:	c7 44 24 08 ff ff ff 	movl   $0xffffffff,0x8(%esp)
 8049d51:	ff 
 8049d52:	c7 44 24 04 01 00 00 	movl   $0x1,0x4(%esp)
 8049d59:	00 
 8049d5a:	8b 44 24 34          	mov    0x34(%esp),%eax
 8049d5e:	89 04 24             	mov    %eax,(%esp)
 8049d61:	e8 4a ec ff ff       	call   80489b0 <__sprintf_chk@plt>
 8049d66:	89 2c 24             	mov    %ebp,(%esp)
 8049d69:	e8 22 ec ff ff       	call   8048990 <close@plt>
 8049d6e:	b8 ff ff ff ff       	mov    $0xffffffff,%eax
 8049d73:	e9 81 01 00 00       	jmp    8049ef9 <submitr+0x706>
 8049d78:	b9 00 20 00 00       	mov    $0x2000,%ecx
 8049d7d:	8d 54 24 60          	lea    0x60(%esp),%edx
 8049d81:	8d 84 24 60 80 00 00 	lea    0x8060(%esp),%eax
 8049d88:	e8 57 f9 ff ff       	call   80496e4 <rio_readlineb>
 8049d8d:	85 c0                	test   %eax,%eax
 8049d8f:	7f 6d                	jg     8049dfe <submitr+0x60b>
 8049d91:	8b 44 24 34          	mov    0x34(%esp),%eax
 8049d95:	c7 00 45 72 72 6f    	movl   $0x6f727245,(%eax)
 8049d9b:	c7 40 04 72 3a 20 43 	movl   $0x43203a72,0x4(%eax)
 8049da2:	c7 40 08 6c 69 65 6e 	movl   $0x6e65696c,0x8(%eax)
 8049da9:	c7 40 0c 74 20 75 6e 	movl   $0x6e752074,0xc(%eax)
 8049db0:	c7 40 10 61 62 6c 65 	movl   $0x656c6261,0x10(%eax)
 8049db7:	c7 40 14 20 74 6f 20 	movl   $0x206f7420,0x14(%eax)
 8049dbe:	c7 40 18 72 65 61 64 	movl   $0x64616572,0x18(%eax)
 8049dc5:	c7 40 1c 20 68 65 61 	movl   $0x61656820,0x1c(%eax)
 8049dcc:	c7 40 20 64 65 72 73 	movl   $0x73726564,0x20(%eax)
 8049dd3:	c7 40 24 20 66 72 6f 	movl   $0x6f726620,0x24(%eax)
 8049dda:	c7 40 28 6d 20 73 65 	movl   $0x6573206d,0x28(%eax)
 8049de1:	c7 40 2c 72 76 65 72 	movl   $0x72657672,0x2c(%eax)
 8049de8:	c6 40 30 00          	movb   $0x0,0x30(%eax)
 8049dec:	89 2c 24             	mov    %ebp,(%esp)
 8049def:	e8 9c eb ff ff       	call   8048990 <close@plt>
 8049df4:	b8 ff ff ff ff       	mov    $0xffffffff,%eax
 8049df9:	e9 fb 00 00 00       	jmp    8049ef9 <submitr+0x706>
 8049dfe:	80 7c 24 60 0d       	cmpb   $0xd,0x60(%esp)
 8049e03:	0f 85 6f ff ff ff    	jne    8049d78 <submitr+0x585>
 8049e09:	80 7c 24 61 0a       	cmpb   $0xa,0x61(%esp)
 8049e0e:	0f 85 64 ff ff ff    	jne    8049d78 <submitr+0x585>
 8049e14:	80 7c 24 62 00       	cmpb   $0x0,0x62(%esp)
 8049e19:	0f 85 59 ff ff ff    	jne    8049d78 <submitr+0x585>
 8049e1f:	b9 00 20 00 00       	mov    $0x2000,%ecx
 8049e24:	8d 54 24 60          	lea    0x60(%esp),%edx
 8049e28:	8d 84 24 60 80 00 00 	lea    0x8060(%esp),%eax
 8049e2f:	e8 b0 f8 ff ff       	call   80496e4 <rio_readlineb>
 8049e34:	85 c0                	test   %eax,%eax
 8049e36:	7f 74                	jg     8049eac <submitr+0x6b9>
 8049e38:	8b 44 24 34          	mov    0x34(%esp),%eax
 8049e3c:	c7 00 45 72 72 6f    	movl   $0x6f727245,(%eax)
 8049e42:	c7 40 04 72 3a 20 43 	movl   $0x43203a72,0x4(%eax)
 8049e49:	c7 40 08 6c 69 65 6e 	movl   $0x6e65696c,0x8(%eax)
 8049e50:	c7 40 0c 74 20 75 6e 	movl   $0x6e752074,0xc(%eax)
 8049e57:	c7 40 10 61 62 6c 65 	movl   $0x656c6261,0x10(%eax)
 8049e5e:	c7 40 14 20 74 6f 20 	movl   $0x206f7420,0x14(%eax)
 8049e65:	c7 40 18 72 65 61 64 	movl   $0x64616572,0x18(%eax)
 8049e6c:	c7 40 1c 20 73 74 61 	movl   $0x61747320,0x1c(%eax)
 8049e73:	c7 40 20 74 75 73 20 	movl   $0x20737574,0x20(%eax)
 8049e7a:	c7 40 24 6d 65 73 73 	movl   $0x7373656d,0x24(%eax)
 8049e81:	c7 40 28 61 67 65 20 	movl   $0x20656761,0x28(%eax)
 8049e88:	c7 40 2c 66 72 6f 6d 	movl   $0x6d6f7266,0x2c(%eax)
 8049e8f:	c7 40 30 20 73 65 72 	movl   $0x72657320,0x30(%eax)
 8049e96:	c7 40 34 76 65 72 00 	movl   $0x726576,0x34(%eax)
 8049e9d:	89 2c 24             	mov    %ebp,(%esp)
 8049ea0:	e8 eb ea ff ff       	call   8048990 <close@plt>
 8049ea5:	b8 ff ff ff ff       	mov    $0xffffffff,%eax
 8049eaa:	eb 4d                	jmp    8049ef9 <submitr+0x706>
 8049eac:	8d 44 24 60          	lea    0x60(%esp),%eax
 8049eb0:	89 44 24 04          	mov    %eax,0x4(%esp)
 8049eb4:	8b 74 24 34          	mov    0x34(%esp),%esi
 8049eb8:	89 34 24             	mov    %esi,(%esp)
 8049ebb:	e8 80 e9 ff ff       	call   8048840 <strcpy@plt>
 8049ec0:	89 2c 24             	mov    %ebp,(%esp)
 8049ec3:	e8 c8 ea ff ff       	call   8048990 <close@plt>
 8049ec8:	0f b6 06             	movzbl (%esi),%eax
 8049ecb:	ba 4f 00 00 00       	mov    $0x4f,%edx
 8049ed0:	29 c2                	sub    %eax,%edx
 8049ed2:	75 1b                	jne    8049eef <submitr+0x6fc>
 8049ed4:	8b 44 24 34          	mov    0x34(%esp),%eax
 8049ed8:	0f b6 40 01          	movzbl 0x1(%eax),%eax
 8049edc:	ba 4b 00 00 00       	mov    $0x4b,%edx
 8049ee1:	29 c2                	sub    %eax,%edx
 8049ee3:	75 0a                	jne    8049eef <submitr+0x6fc>
 8049ee5:	8b 44 24 34          	mov    0x34(%esp),%eax
 8049ee9:	0f b6 50 02          	movzbl 0x2(%eax),%edx
 8049eed:	f7 da                	neg    %edx
 8049eef:	85 d2                	test   %edx,%edx
 8049ef1:	0f 95 c0             	setne  %al
 8049ef4:	0f b6 c0             	movzbl %al,%eax
 8049ef7:	f7 d8                	neg    %eax
 8049ef9:	8b 8c 24 6c a0 00 00 	mov    0xa06c(%esp),%ecx
 8049f00:	65 33 0d 14 00 00 00 	xor    %gs:0x14,%ecx
 8049f07:	0f 84 ef 00 00 00    	je     8049ffc <submitr+0x809>
 8049f0d:	e9 e5 00 00 00       	jmp    8049ff7 <submitr+0x804>
 8049f12:	8d 84 24 60 20 00 00 	lea    0x2060(%esp),%eax
 8049f19:	89 44 24 1c          	mov    %eax,0x1c(%esp)
 8049f1d:	8b 44 24 30          	mov    0x30(%esp),%eax
 8049f21:	89 44 24 18          	mov    %eax,0x18(%esp)
 8049f25:	8b 44 24 2c          	mov    0x2c(%esp),%eax
 8049f29:	89 44 24 14          	mov    %eax,0x14(%esp)
 8049f2d:	8b 44 24 28          	mov    0x28(%esp),%eax
 8049f31:	89 44 24 10          	mov    %eax,0x10(%esp)
 8049f35:	c7 44 24 0c b0 ab 04 	movl   $0x804abb0,0xc(%esp)
 8049f3c:	08 
 8049f3d:	c7 44 24 08 00 20 00 	movl   $0x2000,0x8(%esp)
 8049f44:	00 
 8049f45:	c7 44 24 04 01 00 00 	movl   $0x1,0x4(%esp)
 8049f4c:	00 
 8049f4d:	8d 7c 24 60          	lea    0x60(%esp),%edi
 8049f51:	89 3c 24             	mov    %edi,(%esp)
 8049f54:	e8 57 ea ff ff       	call   80489b0 <__sprintf_chk@plt>
 8049f59:	b8 00 00 00 00       	mov    $0x0,%eax
 8049f5e:	b9 ff ff ff ff       	mov    $0xffffffff,%ecx
 8049f63:	f2 ae                	repnz scas %es:(%edi),%al
 8049f65:	f7 d1                	not    %ecx
 8049f67:	83 e9 01             	sub    $0x1,%ecx
 8049f6a:	89 cf                	mov    %ecx,%edi
 8049f6c:	0f 84 d1 fc ff ff    	je     8049c43 <submitr+0x450>
 8049f72:	89 cb                	mov    %ecx,%ebx
 8049f74:	8d 74 24 60          	lea    0x60(%esp),%esi
 8049f78:	e9 37 fc ff ff       	jmp    8049bb4 <submitr+0x3c1>
 8049f7d:	8b 4c 24 34          	mov    0x34(%esp),%ecx
 8049f81:	89 cf                	mov    %ecx,%edi
 8049f83:	be fc ab 04 08       	mov    $0x804abfc,%esi
 8049f88:	b8 43 00 00 00       	mov    $0x43,%eax
 8049f8d:	f6 c1 01             	test   $0x1,%cl
 8049f90:	74 16                	je     8049fa8 <submitr+0x7b5>
 8049f92:	0f b6 05 fc ab 04 08 	movzbl 0x804abfc,%eax
 8049f99:	88 01                	mov    %al,(%ecx)
 8049f9b:	8d 79 01             	lea    0x1(%ecx),%edi
 8049f9e:	be fd ab 04 08       	mov    $0x804abfd,%esi
 8049fa3:	b8 42 00 00 00       	mov    $0x42,%eax
 8049fa8:	f7 c7 02 00 00 00    	test   $0x2,%edi
 8049fae:	74 0f                	je     8049fbf <submitr+0x7cc>
 8049fb0:	0f b7 16             	movzwl (%esi),%edx
 8049fb3:	66 89 17             	mov    %dx,(%edi)
 8049fb6:	83 c7 02             	add    $0x2,%edi
 8049fb9:	83 c6 02             	add    $0x2,%esi
 8049fbc:	83 e8 02             	sub    $0x2,%eax
 8049fbf:	89 c1                	mov    %eax,%ecx
 8049fc1:	c1 e9 02             	shr    $0x2,%ecx
 8049fc4:	f3 a5                	rep movsl %ds:(%esi),%es:(%edi)
 8049fc6:	ba 00 00 00 00       	mov    $0x0,%edx
 8049fcb:	a8 02                	test   $0x2,%al
 8049fcd:	74 0b                	je     8049fda <submitr+0x7e7>
 8049fcf:	0f b7 16             	movzwl (%esi),%edx
 8049fd2:	66 89 17             	mov    %dx,(%edi)
 8049fd5:	ba 02 00 00 00       	mov    $0x2,%edx
 8049fda:	a8 01                	test   $0x1,%al
 8049fdc:	74 07                	je     8049fe5 <submitr+0x7f2>
 8049fde:	0f b6 04 16          	movzbl (%esi,%edx,1),%eax
 8049fe2:	88 04 17             	mov    %al,(%edi,%edx,1)
 8049fe5:	89 2c 24             	mov    %ebp,(%esp)
 8049fe8:	e8 a3 e9 ff ff       	call   8048990 <close@plt>
 8049fed:	b8 ff ff ff ff       	mov    $0xffffffff,%eax
 8049ff2:	e9 02 ff ff ff       	jmp    8049ef9 <submitr+0x706>
 8049ff7:	e8 34 e8 ff ff       	call   8048830 <__stack_chk_fail@plt>
 8049ffc:	81 c4 7c a0 00 00    	add    $0xa07c,%esp
 804a002:	5b                   	pop    %ebx
 804a003:	5e                   	pop    %esi
 804a004:	5f                   	pop    %edi
 804a005:	5d                   	pop    %ebp
 804a006:	c3                   	ret    

0804a007 <init_timeout>:
 804a007:	53                   	push   %ebx
 804a008:	83 ec 18             	sub    $0x18,%esp
 804a00b:	8b 5c 24 20          	mov    0x20(%esp),%ebx
 804a00f:	85 db                	test   %ebx,%ebx
 804a011:	74 26                	je     804a039 <init_timeout+0x32>
 804a013:	c7 44 24 04 b0 96 04 	movl   $0x80496b0,0x4(%esp)
 804a01a:	08 
 804a01b:	c7 04 24 0e 00 00 00 	movl   $0xe,(%esp)
 804a022:	e8 d9 e7 ff ff       	call   8048800 <signal@plt>
 804a027:	85 db                	test   %ebx,%ebx
 804a029:	b8 00 00 00 00       	mov    $0x0,%eax
 804a02e:	0f 48 d8             	cmovs  %eax,%ebx
 804a031:	89 1c 24             	mov    %ebx,(%esp)
 804a034:	e8 e7 e7 ff ff       	call   8048820 <alarm@plt>
 804a039:	83 c4 18             	add    $0x18,%esp
 804a03c:	5b                   	pop    %ebx
 804a03d:	c3                   	ret    

0804a03e <init_driver>:
 804a03e:	57                   	push   %edi
 804a03f:	56                   	push   %esi
 804a040:	53                   	push   %ebx
 804a041:	83 ec 40             	sub    $0x40,%esp
 804a044:	8b 74 24 50          	mov    0x50(%esp),%esi
 804a048:	65 a1 14 00 00 00    	mov    %gs:0x14,%eax
 804a04e:	89 44 24 3c          	mov    %eax,0x3c(%esp)
 804a052:	31 c0                	xor    %eax,%eax
 804a054:	c7 44 24 04 01 00 00 	movl   $0x1,0x4(%esp)
 804a05b:	00 
 804a05c:	c7 04 24 0d 00 00 00 	movl   $0xd,(%esp)
 804a063:	e8 98 e7 ff ff       	call   8048800 <signal@plt>
 804a068:	c7 44 24 04 01 00 00 	movl   $0x1,0x4(%esp)
 804a06f:	00 
 804a070:	c7 04 24 1d 00 00 00 	movl   $0x1d,(%esp)
 804a077:	e8 84 e7 ff ff       	call   8048800 <signal@plt>
 804a07c:	c7 44 24 04 01 00 00 	movl   $0x1,0x4(%esp)
 804a083:	00 
 804a084:	c7 04 24 1d 00 00 00 	movl   $0x1d,(%esp)
 804a08b:	e8 70 e7 ff ff       	call   8048800 <signal@plt>
 804a090:	c7 44 24 08 00 00 00 	movl   $0x0,0x8(%esp)
 804a097:	00 
 804a098:	c7 44 24 04 01 00 00 	movl   $0x1,0x4(%esp)
 804a09f:	00 
 804a0a0:	c7 04 24 02 00 00 00 	movl   $0x2,(%esp)
 804a0a7:	e8 94 e8 ff ff       	call   8048940 <socket@plt>
 804a0ac:	89 c3                	mov    %eax,%ebx
 804a0ae:	85 c0                	test   %eax,%eax
 804a0b0:	79 4e                	jns    804a100 <init_driver+0xc2>
 804a0b2:	c7 06 45 72 72 6f    	movl   $0x6f727245,(%esi)
 804a0b8:	c7 46 04 72 3a 20 43 	movl   $0x43203a72,0x4(%esi)
 804a0bf:	c7 46 08 6c 69 65 6e 	movl   $0x6e65696c,0x8(%esi)
 804a0c6:	c7 46 0c 74 20 75 6e 	movl   $0x6e752074,0xc(%esi)
 804a0cd:	c7 46 10 61 62 6c 65 	movl   $0x656c6261,0x10(%esi)
 804a0d4:	c7 46 14 20 74 6f 20 	movl   $0x206f7420,0x14(%esi)
 804a0db:	c7 46 18 63 72 65 61 	movl   $0x61657263,0x18(%esi)
 804a0e2:	c7 46 1c 74 65 20 73 	movl   $0x73206574,0x1c(%esi)
 804a0e9:	c7 46 20 6f 63 6b 65 	movl   $0x656b636f,0x20(%esi)
 804a0f0:	66 c7 46 24 74 00    	movw   $0x74,0x24(%esi)
 804a0f6:	b8 ff ff ff ff       	mov    $0xffffffff,%eax
 804a0fb:	e9 33 01 00 00       	jmp    804a233 <init_driver+0x1f5>
 804a100:	c7 04 24 45 ab 04 08 	movl   $0x804ab45,(%esp)
 804a107:	e8 54 e8 ff ff       	call   8048960 <gethostbyname@plt>
 804a10c:	85 c0                	test   %eax,%eax
 804a10e:	75 68                	jne    804a178 <init_driver+0x13a>
 804a110:	c7 06 45 72 72 6f    	movl   $0x6f727245,(%esi)
 804a116:	c7 46 04 72 3a 20 44 	movl   $0x44203a72,0x4(%esi)
 804a11d:	c7 46 08 4e 53 20 69 	movl   $0x6920534e,0x8(%esi)
 804a124:	c7 46 0c 73 20 75 6e 	movl   $0x6e752073,0xc(%esi)
 804a12b:	c7 46 10 61 62 6c 65 	movl   $0x656c6261,0x10(%esi)
 804a132:	c7 46 14 20 74 6f 20 	movl   $0x206f7420,0x14(%esi)
 804a139:	c7 46 18 72 65 73 6f 	movl   $0x6f736572,0x18(%esi)
 804a140:	c7 46 1c 6c 76 65 20 	movl   $0x2065766c,0x1c(%esi)
 804a147:	c7 46 20 73 65 72 76 	movl   $0x76726573,0x20(%esi)
 804a14e:	c7 46 24 65 72 20 61 	movl   $0x61207265,0x24(%esi)
 804a155:	c7 46 28 64 64 72 65 	movl   $0x65726464,0x28(%esi)
 804a15c:	66 c7 46 2c 73 73    	movw   $0x7373,0x2c(%esi)
 804a162:	c6 46 2e 00          	movb   $0x0,0x2e(%esi)
 804a166:	89 1c 24             	mov    %ebx,(%esp)
 804a169:	e8 22 e8 ff ff       	call   8048990 <close@plt>
 804a16e:	b8 ff ff ff ff       	mov    $0xffffffff,%eax
 804a173:	e9 bb 00 00 00       	jmp    804a233 <init_driver+0x1f5>
 804a178:	8d 7c 24 2c          	lea    0x2c(%esp),%edi
 804a17c:	c7 44 24 2c 00 00 00 	movl   $0x0,0x2c(%esp)
 804a183:	00 
 804a184:	c7 44 24 30 00 00 00 	movl   $0x0,0x30(%esp)
 804a18b:	00 
 804a18c:	c7 44 24 34 00 00 00 	movl   $0x0,0x34(%esp)
 804a193:	00 
 804a194:	c7 44 24 38 00 00 00 	movl   $0x0,0x38(%esp)
 804a19b:	00 
 804a19c:	66 c7 44 24 2c 02 00 	movw   $0x2,0x2c(%esp)
 804a1a3:	c7 44 24 0c 0c 00 00 	movl   $0xc,0xc(%esp)
 804a1aa:	00 
 804a1ab:	8b 50 0c             	mov    0xc(%eax),%edx
 804a1ae:	89 54 24 08          	mov    %edx,0x8(%esp)
 804a1b2:	8b 40 10             	mov    0x10(%eax),%eax
 804a1b5:	8b 00                	mov    (%eax),%eax
 804a1b7:	89 44 24 04          	mov    %eax,0x4(%esp)
 804a1bb:	8d 44 24 30          	lea    0x30(%esp),%eax
 804a1bf:	89 04 24             	mov    %eax,(%esp)
 804a1c2:	e8 c9 e6 ff ff       	call   8048890 <__memmove_chk@plt>
 804a1c7:	66 c7 44 24 2e 43 31 	movw   $0x3143,0x2e(%esp)
 804a1ce:	c7 44 24 08 10 00 00 	movl   $0x10,0x8(%esp)
 804a1d5:	00 
 804a1d6:	89 7c 24 04          	mov    %edi,0x4(%esp)
 804a1da:	89 1c 24             	mov    %ebx,(%esp)
 804a1dd:	e8 9e e7 ff ff       	call   8048980 <connect@plt>
 804a1e2:	85 c0                	test   %eax,%eax
 804a1e4:	79 37                	jns    804a21d <init_driver+0x1df>
 804a1e6:	c7 44 24 10 45 ab 04 	movl   $0x804ab45,0x10(%esp)
 804a1ed:	08 
 804a1ee:	c7 44 24 0c 40 ac 04 	movl   $0x804ac40,0xc(%esp)
 804a1f5:	08 
 804a1f6:	c7 44 24 08 ff ff ff 	movl   $0xffffffff,0x8(%esp)
 804a1fd:	ff 
 804a1fe:	c7 44 24 04 01 00 00 	movl   $0x1,0x4(%esp)
 804a205:	00 
 804a206:	89 34 24             	mov    %esi,(%esp)
 804a209:	e8 a2 e7 ff ff       	call   80489b0 <__sprintf_chk@plt>
 804a20e:	89 1c 24             	mov    %ebx,(%esp)
 804a211:	e8 7a e7 ff ff       	call   8048990 <close@plt>
 804a216:	b8 ff ff ff ff       	mov    $0xffffffff,%eax
 804a21b:	eb 16                	jmp    804a233 <init_driver+0x1f5>
 804a21d:	89 1c 24             	mov    %ebx,(%esp)
 804a220:	e8 6b e7 ff ff       	call   8048990 <close@plt>
 804a225:	66 c7 06 4f 4b       	movw   $0x4b4f,(%esi)
 804a22a:	c6 46 02 00          	movb   $0x0,0x2(%esi)
 804a22e:	b8 00 00 00 00       	mov    $0x0,%eax
 804a233:	8b 4c 24 3c          	mov    0x3c(%esp),%ecx
 804a237:	65 33 0d 14 00 00 00 	xor    %gs:0x14,%ecx
 804a23e:	74 05                	je     804a245 <init_driver+0x207>
 804a240:	e8 eb e5 ff ff       	call   8048830 <__stack_chk_fail@plt>
 804a245:	83 c4 40             	add    $0x40,%esp
 804a248:	5b                   	pop    %ebx
 804a249:	5e                   	pop    %esi
 804a24a:	5f                   	pop    %edi
 804a24b:	c3                   	ret    

0804a24c <driver_post>:
 804a24c:	53                   	push   %ebx
 804a24d:	83 ec 28             	sub    $0x28,%esp
 804a250:	8b 44 24 30          	mov    0x30(%esp),%eax
 804a254:	8b 5c 24 3c          	mov    0x3c(%esp),%ebx
 804a258:	83 7c 24 38 00       	cmpl   $0x0,0x38(%esp)
 804a25d:	74 2c                	je     804a28b <driver_post+0x3f>
 804a25f:	8b 44 24 34          	mov    0x34(%esp),%eax
 804a263:	89 44 24 08          	mov    %eax,0x8(%esp)
 804a267:	c7 44 24 04 80 ac 04 	movl   $0x804ac80,0x4(%esp)
 804a26e:	08 
 804a26f:	c7 04 24 01 00 00 00 	movl   $0x1,(%esp)
 804a276:	e8 b5 e6 ff ff       	call   8048930 <__printf_chk@plt>
 804a27b:	66 c7 03 4f 4b       	movw   $0x4b4f,(%ebx)
 804a280:	c6 43 02 00          	movb   $0x0,0x2(%ebx)
 804a284:	b8 00 00 00 00       	mov    $0x0,%eax
 804a289:	eb 4d                	jmp    804a2d8 <driver_post+0x8c>
 804a28b:	85 c0                	test   %eax,%eax
 804a28d:	74 3b                	je     804a2ca <driver_post+0x7e>
 804a28f:	80 38 00             	cmpb   $0x0,(%eax)
 804a292:	74 36                	je     804a2ca <driver_post+0x7e>
 804a294:	89 5c 24 18          	mov    %ebx,0x18(%esp)
 804a298:	8b 54 24 34          	mov    0x34(%esp),%edx
 804a29c:	89 54 24 14          	mov    %edx,0x14(%esp)
 804a2a0:	c7 44 24 10 97 ac 04 	movl   $0x804ac97,0x10(%esp)
 804a2a7:	08 
 804a2a8:	89 44 24 0c          	mov    %eax,0xc(%esp)
 804a2ac:	c7 44 24 08 a0 ac 04 	movl   $0x804aca0,0x8(%esp)
 804a2b3:	08 
 804a2b4:	c7 44 24 04 31 43 00 	movl   $0x4331,0x4(%esp)
 804a2bb:	00 
 804a2bc:	c7 04 24 45 ab 04 08 	movl   $0x804ab45,(%esp)
 804a2c3:	e8 2b f5 ff ff       	call   80497f3 <submitr>
 804a2c8:	eb 0e                	jmp    804a2d8 <driver_post+0x8c>
 804a2ca:	66 c7 03 4f 4b       	movw   $0x4b4f,(%ebx)
 804a2cf:	c6 43 02 00          	movb   $0x0,0x2(%ebx)
 804a2d3:	b8 00 00 00 00       	mov    $0x0,%eax
 804a2d8:	83 c4 28             	add    $0x28,%esp
 804a2db:	5b                   	pop    %ebx
 804a2dc:	c3                   	ret    
 804a2dd:	66 90                	xchg   %ax,%ax
 804a2df:	90                   	nop

0804a2e0 <__libc_csu_init>:
 804a2e0:	55                   	push   %ebp
 804a2e1:	57                   	push   %edi
 804a2e2:	31 ff                	xor    %edi,%edi
 804a2e4:	56                   	push   %esi
 804a2e5:	53                   	push   %ebx
 804a2e6:	e8 05 e7 ff ff       	call   80489f0 <__x86.get_pc_thunk.bx>
 804a2eb:	81 c3 15 2d 00 00    	add    $0x2d15,%ebx
 804a2f1:	83 ec 1c             	sub    $0x1c,%esp
 804a2f4:	8b 6c 24 30          	mov    0x30(%esp),%ebp
 804a2f8:	8d b3 0c ff ff ff    	lea    -0xf4(%ebx),%esi
 804a2fe:	e8 8d e4 ff ff       	call   8048790 <_init>
 804a303:	8d 83 08 ff ff ff    	lea    -0xf8(%ebx),%eax
 804a309:	29 c6                	sub    %eax,%esi
 804a30b:	c1 fe 02             	sar    $0x2,%esi
 804a30e:	85 f6                	test   %esi,%esi
 804a310:	74 27                	je     804a339 <__libc_csu_init+0x59>
 804a312:	8d b6 00 00 00 00    	lea    0x0(%esi),%esi
 804a318:	8b 44 24 38          	mov    0x38(%esp),%eax
 804a31c:	89 2c 24             	mov    %ebp,(%esp)
 804a31f:	89 44 24 08          	mov    %eax,0x8(%esp)
 804a323:	8b 44 24 34          	mov    0x34(%esp),%eax
 804a327:	89 44 24 04          	mov    %eax,0x4(%esp)
 804a32b:	ff 94 bb 08 ff ff ff 	call   *-0xf8(%ebx,%edi,4)
 804a332:	83 c7 01             	add    $0x1,%edi
 804a335:	39 f7                	cmp    %esi,%edi
 804a337:	75 df                	jne    804a318 <__libc_csu_init+0x38>
 804a339:	83 c4 1c             	add    $0x1c,%esp
 804a33c:	5b                   	pop    %ebx
 804a33d:	5e                   	pop    %esi
 804a33e:	5f                   	pop    %edi
 804a33f:	5d                   	pop    %ebp
 804a340:	c3                   	ret    
 804a341:	eb 0d                	jmp    804a350 <__libc_csu_fini>
 804a343:	90                   	nop
 804a344:	90                   	nop
 804a345:	90                   	nop
 804a346:	90                   	nop
 804a347:	90                   	nop
 804a348:	90                   	nop
 804a349:	90                   	nop
 804a34a:	90                   	nop
 804a34b:	90                   	nop
 804a34c:	90                   	nop
 804a34d:	90                   	nop
 804a34e:	90                   	nop
 804a34f:	90                   	nop

0804a350 <__libc_csu_fini>:
 804a350:	f3 c3                	repz ret 

Disassembly of section .fini:

0804a354 <_fini>:
 804a354:	53                   	push   %ebx
 804a355:	83 ec 08             	sub    $0x8,%esp
 804a358:	e8 93 e6 ff ff       	call   80489f0 <__x86.get_pc_thunk.bx>
 804a35d:	81 c3 a3 2c 00 00    	add    $0x2ca3,%ebx
 804a363:	83 c4 08             	add    $0x8,%esp
 804a366:	5b                   	pop    %ebx
 804a367:	c3                   	ret    
